******************************************************************************
                  TI ARM Linker Unix v16.9.1                   
******************************************************************************
>> Linked Mon Jul 31 12:42:04 2017

OUTPUT FILE NAME:   <water_sensor_wireless_comm.out>
ENTRY POINT SYMBOL: "ResetISR"  address: 00008dc9


MEMORY CONFIGURATION

         name            origin    length      used     unused   attr    fill
----------------------  --------  ---------  --------  --------  ----  --------
  FLASH                 00000000   00020000  0000f1b8  00010e48  R  X
  SRAM                  20000000   00005000  0000381b  000017e5  RW X


SEGMENT ALLOCATION MAP

run origin  load origin   length   init length attrs members
----------  ----------- ---------- ----------- ----- -------
00000000    00000000    0000f168   0000f168    r-x
  00000000    00000000    0000003c   0000003c    r-- .resetVecs
  0000003c    0000003c    0000af42   0000af42    r-x .text
  0000af80    0000af80    00003dd2   00003dd2    r-- .const
  0000ed58    0000ed58    00000410   00000410    r-- .cinit
0001ffa8    0001ffa8    00000058   00000058    r--
  0001ffa8    0001ffa8    00000058   00000058    r-- .ccfg
20000100    20000100    0000345a   00000000    rw-
  20000100    20000100    00002871   00000000    rw- .bss
  20002978    20002978    00000be2   00000000    rw- .data
20004d00    20004d00    00000300   00000000    rw-
  20004d00    20004d00    00000300   00000000    rw- .stack


SECTION ALLOCATION MAP

 output                                  attributes/
section   page    origin      length       input sections
--------  ----  ----------  ----------   ----------------
.text      0    0000003c    0000af42     
                  0000003c    00001102     rtsv7M3_T_le_eabi.lib : _printfi.obj (.text)
                  0000113e    00000002     rf_singleMode_cc13xxware.aem3 : RFCC26XX_singleMode.oem3 (.text:defaultErrCb)
                  00001140    000003b8                                   : RFCC26XX_singleMode.oem3 (.text:fsmActiveState)
                  000014f8    00000348     EasyLink.obj (.text:EasyLink_init)
                  00001840    00000324     rtsv7M3_T_le_eabi.lib : trgdrv.obj (.text)
                  00001b64    0000030c                           : lowlev.obj (.text)
                  00001e70    00000258     EasyLink.obj (.text:EasyLink_receive)
                  000020c8    00000228     driverlib.lib : sys_ctrl.obj (.text:NOROM_SysCtrlSetRechargeBeforePowerDown)
                  000022f0    00000228     drivers_cc13xxware.aem3 : PowerCC26XX.oem3 (.text:Power_sleep)
                  00002518    000001f4     rtsv7M3_T_le_eabi.lib : ull_div_t2.obj (.text)
                  0000270c    000001ec     drivers_cc13xxware.aem3 : PowerCC26XX_calibrateRCOSC.oem3 (.text:calibrateRcoscHf1)
                  000028f8    000001dc     rf_singleMode_cc13xxware.aem3 : RFCC26XX_singleMode.oem3 (.text:RF_postCmd)
                  00002ad4    000001c4     drivers_cc13xxware.aem3 : PINCC26XX.oem3 (.text:PIN_init)
                  00002c98    000001c4     rtsv7M3_T_le_eabi.lib : fopen.obj (.text)
                  00002e5c    000001b6                           : fd_add_t2.obj (.text)
                  00003012    00000002     drivers_cc13xxware.aem3 : PowerCC26XX.oem3 (.text:emptyClockFunc)
                  00003014    000001a4     EasyLink.obj (.text:EasyLink_setRfPwr)
                  000031b8    000001a0     drivers_cc13xxware.aem3 : PowerCC26XX_calibrateRCOSC.oem3 (.text:PowerCC26XX_doCalibrate)
                  00003358    000001a0                             : UARTCC26XX.oem3 (.text:UARTCC26XX_open)
                  000034f8    00000168     rf_singleMode_cc13xxware.aem3 : RFCC26XX_singleMode.oem3 (.text:fsmSetupState)
                  00003660    00000150     smartrf_settings_predefined.obj (.text:rf_patch_mce_genook)
                  000037b0    00000138     water_sensor_wireless_comm_pem3.oem3 (.text:ti_uia_loggers_LoggerStopMode_writeMemoryRange__E)
                  000038e8    00000136     rtsv7M3_T_le_eabi.lib : fd_div_t2.obj (.text)
                  00003a1e    00000002     smartrf_settings.obj (.text:enterGenfskSysPatch)
                  00003a20    00000134     rtsv7M3_T_le_eabi.lib : fputs.obj (.text)
                  00003b54    00000130     driverlib.lib : setup_rom.obj (.text:NOROM_SetupAfterColdResetWakeupFromShutDownCfg3)
                  00003c84    0000012c     drivers_cc13xxware.aem3 : PowerCC26XX.oem3 (.text:Power_init)
                  00003db0    00000128     rf_singleMode_cc13xxware.aem3 : RFCC26XX_singleMode.oem3 (.text:rf_init)
                  00003ed8    00000128     smartrf_settings.obj (.text:rf_patch_rfe_genfsk)
                  00004000    00000128     smartrf_settings_predefined.obj (.text:rf_patch_rfe_genfsk)
                  00004128    00000128     smartrf_settings_predefined.obj (.text:rf_patch_rfe_lrm)
                  00004250    0000011c     drivers_cc13xxware.aem3 : UARTCC26XX.oem3 (.text:UARTCC26XX_read)
                  0000436c    00000118     rf_singleMode_cc13xxware.aem3 : RFCC26XX_singleMode.oem3 (.text:hwiFxnCpe0Active)
                  00004484    00000114     smartrf_settings_predefined.obj (.text:rf_patch_mce_hsp_4mbps)
                  00004598    00000110     drivers_cc13xxware.aem3 : UARTCC26XX.oem3 (.text:UARTCC26XX_hwiIntFxn)
                  000046a8    0000010c     water_sensor_wireless_comm_pem3.oem3 (.text:ti_uia_loggers_LoggerStopMode_write8__E)
                  000047b4    00000108     rf_singleMode_cc13xxware.aem3 : RFCC26XX_singleMode.oem3 (.text:RF_close)
                  000048bc    000000fc     drivers_cc13xxware.aem3 : UARTCC26XX.oem3 (.text:UARTCC26XX_write)
                  000049b8    000000fc     rtsv7M3_T_le_eabi.lib : fd_mul_t2.obj (.text)
                  00004ab4    000000f8     sysbios.aem3 : BIOS.obj (.text:xdc_runtime_Startup_startMods__I)
                  00004bac    000000f4     water_sensor_wireless_comm_pem3.oem3 (.text:ti_uia_loggers_LoggerStopMode_write4__E)
                  00004ca0    000000f0     driverlib.lib : setup_rom.obj (.text:NOROM_SetupAfterColdResetWakeupFromShutDownCfg2)
                  00004d90    000000e8     water_sensor_wireless_comm_pem3.oem3 (.text:ti_uia_loggers_LoggerStopMode_write1__E)
                  00004e78    000000e8     water_sensor_wireless_comm_pem3.oem3 (.text:ti_uia_loggers_LoggerStopMode_write2__E)
                  00004f60    000000e0     drivers_cc13xxware.aem3 : PINCC26XX.oem3 (.text:PINCC26XX_setIoCfg)
                  00005040    000000dc     rtsv7M3_T_le_eabi.lib : setvbuf.obj (.text)
                  0000511c    000000d8     driverlib.lib : rfc.obj (.text:NOROM_RFCRTrim)
                  000051f4    000000d8     smartrf_settings_predefined.obj (.text:rf_patch_rfe_genook)
                  000052cc    000000d8     smartrf_settings_predefined.obj (.text:rf_patch_rfe_hsp_4mbps)
                  000053a4    000000d8     water_sensor_wireless_comm_pem3.oem3 (.text:ti_uia_loggers_LoggerStopMode_write0__E)
                  0000547c    000000d4     driverlib.lib : rfc.obj (.text:NOROM_RFCRfTrimRead)
                  00005550    000000d4     power_cc13xx_tirtos.aem3 : PowerCC26XX_tirtos.oem3 (.text:PowerCC26XX_standbyPolicy)
                  00005624    000000d4     drivers_cc13xxware.aem3 : PowerCC26XX.oem3 (.text:Power_releaseDependency)
                  000056f8    000000d0                             : PowerCC26XX.oem3 (.text:Power_setDependency)
                  000057c8    000000d0     rtsv7M3_T_le_eabi.lib : s_scalbn.obj (.text)
                  00005898    000000cc     rf_singleMode_cc13xxware.aem3 : RFCC26XX_singleMode.oem3 (.text:RF_open)
                  00005964    000000cc     sysbios.aem3 : BIOS.obj (.text:ti_sysbios_knl_Semaphore_pend__E)
                  00005a30    000000cc                  : BIOS.obj (.text:ti_sysbios_knl_Task_Instance_init__E)
                  00005afc    000000c8     drivers_cc13xxware.aem3 : UARTCC26XX.oem3 (.text:UARTCC26XX_initHw)
                  00005bc4    000000c8     rtsv7M3_T_le_eabi.lib : fflush.obj (.text)
                  00005c8c    000000c8     sysbios.aem3 : m3_Hwi_asm.obj (.text:ti_sysbios_family_arm_m3_Hwi_dispatch__I)
                  00005d54    000000c4     rf_singleMode_cc13xxware.aem3 : RFCC26XX_singleMode.oem3 (.text:fsmPowerUpState)
                  00005e18    000000c0     driverlib.lib : setup.obj (.text:TrimAfterColdResetWakeupFromShutDown)
                  00005ed8    000000b4     sysbios.aem3 : BIOS.obj (.text:ti_sysbios_knl_Task_checkStacks__E)
                  00005f8c    000000ac     rtsv7M3_T_le_eabi.lib : _io_perm.obj (.text)
                  00006038    000000a8     driverlib.lib : setup.obj (.text:NOROM_SetupTrimDevice)
                  000060e0    000000a4                   : setup_rom.obj (.text:NOROM_SetupAfterColdResetWakeupFromShutDownCfg1)
                  00006184    000000a0     auto_init.aem3 : auto_init.oem3 (.text)
                  00006224    0000009c     rtsv7M3_T_le_eabi.lib : memcpy_t2.obj (.text)
                  000062c0    00000098     main.obj (.text:main)
                  00006358    00000098     rtsv7M3_T_le_eabi.lib : fclose.obj (.text)
                  000063f0    00000098                           : fputc.obj (.text)
                  00006488    00000098     sysbios.aem3 : BIOS.obj (.text:ti_sysbios_knl_Clock_workFuncDynamic__E)
                  00006520    00000094     drivers_cc13xxware.aem3 : PINCC26XX.oem3 (.text:PIN_open)
                  000065b4    00000094     sysbios.aem3 : BIOS.obj (.text:ti_sysbios_family_arm_m3_Hwi_Instance_init__E)
                  00006648    00000094                  : BIOS.obj (.text:ti_sysbios_knl_Task_Instance_finalize__E)
                  000066dc    00000094     drivers_cc13xxware.aem3 : UARTCC26XX.oem3 (.text:writeFinishedDoCallback)
                  00006770    00000090                             : PowerCC26XX.oem3 (.text:switchXOSCHFclockFunc)
                  00006800    00000090     ti.uia.loggers.aem3 : LoggerStopMode.oem3 (.text:ti_uia_loggers_LoggerStopMode_initQueueDescriptor__E)
                  00006890    0000008c     drivers_cc13xxware.aem3 : UARTCC26XX.oem3 (.text:UARTCC26XX_initIO)
                  0000691c    0000008c                             : UARTCC26XX.oem3 (.text:UARTCC26XX_writeCancel)
                  000069a8    0000008c                             : PowerCC26XX.oem3 (.text:disableLFClockQualifiers)
                  00006a34    00000088                             : PowerCC26XX_calibrateRCOSC.oem3 (.text:calibrateRcoscHf2)
                  00006abc    00000086     rtsv7M3_T_le_eabi.lib : fd_cmp_t2.obj (.text:__aeabi_cdcmple)
                  00006b42    00000086                           : fd_cmp_t2.obj (.text:__aeabi_cdrcmple)
                  00006bc8    00000084     rf_singleMode_cc13xxware.aem3 : RFCC26XX_singleMode.oem3 (.text:swiFxnHw)
                  00006c4c    00000080                                   : RFCC26XX_singleMode.oem3 (.text:RF_pendCmd)
                  00006ccc    00000080     sysbios.aem3 : BIOS.obj (.text:ti_sysbios_family_arm_m3_Hwi_initNVIC__E)
                  00006d4c    00000080                  : BIOS.obj (.text:ti_sysbios_knl_Task_postInit__I)
                  00006dcc    00000080                  : BIOS.obj (.text:ti_sysbios_utils_Load_updateLoads__E)
                  00006e4c    00000080                  : BIOS.obj (.text:xdc_runtime_Core_createObject__I)
                  00006ecc    0000007a     rtsv7M3_T_le_eabi.lib : memset_t2.obj (.text)
                  00006f46    00000002     smartrf_settings_predefined.obj (.text:enterGenfskSysPatch)
                  00006f48    00000078     drivers_cc13xxware.aem3 : UARTCC26XX.oem3 (.text:UARTCC26XX_close)
                  00006fc0    00000078     sysbios.aem3 : BIOS.obj (.text:ti_sysbios_knl_Clock_walkQueueDynamic__E)
                  00007038    00000074     driverlib.lib : setup_rom.obj (.text:NOROM_SetupSetVddrLevel)
                  000070ac    00000074     drivers_cc13xxware.aem3 : PowerCC26XX_calibrateRCOSC.oem3 (.text:PowerCC26XX_auxISR)
                  00007120    00000074     rf_singleMode_cc13xxware.aem3 : RFCC26XX_singleMode.oem3 (.text:decActiveClientCnt)
                  00007194    00000074                                   : RFCC26XX_singleMode.oem3 (.text:fsmPowerDownState)
                  00007208    00000074     sysbios.aem3 : BIOS.obj (.text:ti_sysbios_family_arm_cc26xx_Timer_start__E)
                  0000727c    00000074                  : BIOS.obj (.text:ti_sysbios_heaps_HeapMem_allocUnprotected__E)
                  000072f0    00000074     ti.uia.runtime.aem3 : QueueDescriptor.oem3 (.text:ti_uia_runtime_QueueDescriptor_addToList__E)
                  00007364    00000074     drivers_cc13xxware.aem3 : UARTCC26XX.oem3 (.text:writeTxFifoFlush)
                  000073d8    00000070     driverlib.lib : chipinfo.obj (.text:NOROM_ChipInfo_GetHwRevision)
                  00007448    00000070     rtsv7M3_T_le_eabi.lib : printf.obj (.text)
                  000074b8    0000006c     driverlib.lib : setup_rom.obj (.text:NOROM_SetupGetTrimForAmpcompCtrl)
                  00007524    0000006c     drivers_cc13xxware.aem3 : PowerCC26XX.oem3 (.text:PowerCC26XX_calibrate)
                  00007590    0000006c                             : UARTCC26XX.oem3 (.text:UARTCC26XX_readCancel)
                  000075fc    0000006c     sysbios.aem3 : BIOS.obj (.text:xdc_runtime_Memory_alloc__E)
                  00007668    00000068     driverlib.lib : setup_rom.obj (.text:NOROM_SetupGetTrimForAnabypassValue1)
                  000076d0    00000068                   : sys_ctrl.obj (.text:NOROM_SysCtrl_DCDC_VoltageConditionalControl)
                  00007738    00000068     rf_singleMode_cc13xxware.aem3 : RFCC26XX_singleMode.oem3 (.text:RF_getCurrentTime)
                  000077a0    00000068     rtsv7M3_T_le_eabi.lib : copy_decompress_lzss.obj (.text:decompress:lzss)
                  00007808    00000068                           : trgmsg.obj (.text)
                  00007870    00000068     sysbios.aem3 : BIOS.obj (.text:ti_sysbios_knl_Clock_startI__E)
                  000078d8    00000068                  : BIOS.obj (.text:ti_sysbios_knl_Swi_restoreHwi__E)
                  00007940    00000066     ti.uia.loggers.aem3 : LoggerStopMode.oem3 (.text:ti_uia_loggers_LoggerStopMode_flush__E)
                  000079a6    00000066     sysbios.aem3 : BIOS.obj (.text:xdc_runtime_Core_deleteObject__I)
                  00007a0c    00000064     driverlib.lib : osc.obj (.text:NOROM_OSCHF_AttemptToSwitchToXosc)
                  00007a70    00000064     drivers_cc13xxware.aem3 : UARTCC26XX.oem3 (.text:UARTCC26XX_control)
                  00007ad4    00000064     rtsv7M3_T_le_eabi.lib : fseek.obj (.text)
                  00007b38    00000064     sysbios.aem3 : BIOS.obj (.text:ti_sysbios_knl_Semaphore_post__E)
                  00007b9c    00000064                  : BIOS.obj (.text:ti_sysbios_knl_Task_startCore__E)
                  00007c00    00000064                  : BIOS.obj (.text:ti_sysbios_utils_Load_idleFxn__E)
                  00007c64    00000060     driverlib.lib : osc.obj (.text:NOROM_OSCClockSourceSet)
                  00007cc4    00000060     drivers_cc13xxware.aem3 : PowerCC26XX_calibrateRCOSC.oem3 (.text:PowerCC26XX_RCOSC_clockFunc)
                  00007d24    00000060     rf_singleMode_cc13xxware.aem3 : RFCC26XX_singleMode.oem3 (.text:fsmXOSCState)
                  00007d84    00000060     sysbios.aem3 : BIOS.obj (.text:ti_sysbios_knl_Task_schedule__I)
                  00007de4    00000060     drivers_cc13xxware.aem3 : PowerCC26XX_calibrateRCOSC.oem3 (.text:updateSubSecInc)
                  00007e44    0000005c     driverlib.lib : sys_ctrl.obj (.text:NOROM_SysCtrlAdjustRechargeAfterPowerDown)
                  00007ea0    0000005c     drivers_cc13xxware.aem3 : PINCC26XX.oem3 (.text:PIN_remove)
                  00007efc    0000005c     smartrf_settings.obj (.text:configureGenfskPatch)
                  00007f58    0000005c     smartrf_settings_predefined.obj (.text:configureGenfskPatch)
                  00007fb4    0000005c     smartrf_settings_predefined.obj (.text:configureGenookPatch)
                  00008010    0000005c     smartrf_settings_predefined.obj (.text:configureLrmPatch)
                  0000806c    0000005c     rtsv7M3_T_le_eabi.lib : s_frexp.obj (.text)
                  000080c8    0000005c     sysbios.aem3 : BIOS.obj (.text:ti_sysbios_knl_Task_Module_startup__E)
                  00008124    0000005c     water_sensor_wireless_comm_pem3.oem3 (.text:ti_sysbios_knl_Task_create)
                  00008180    00000058     drivers_cc13xxware.aem3 : PowerCC26XX_calibrateRCOSC.oem3 (.text:PowerCC26XX_initiateCalibration)
                  000081d8    00000058     water_sensor_wireless_comm_pem3.oem3 (.text:ti_sysbios_family_arm_m3_Hwi_construct)
                  00008230    00000058     sysbios.aem3 : BIOS.obj (.text:ti_sysbios_family_arm_m3_Hwi_postInit__I)
                  00008288    00000058                  : BIOS.obj (.text:ti_sysbios_heaps_HeapMem_alloc__E)
                  000082e0    00000058                  : BIOS.obj (.text:ti_sysbios_heaps_HeapMem_freeUnprotected__E)
                  00008338    00000058                  : BIOS.obj (.text:ti_sysbios_knl_Swi_Instance_init__E)
                  00008390    00000058                  : BIOS.obj (.text:ti_sysbios_knl_Swi_run__I)
                  000083e8    00000054     drivers_cc13xxware.aem3 : PowerCC26XX.oem3 (.text:configureXOSCHF)
                  0000843c    00000054     rf_singleMode_cc13xxware.aem3 : RFCC26XX_singleMode.oem3 (.text:hwiFxnHw)
                  00008490    00000054                                   : RFCC26XX_singleMode.oem3 (.text:ratChanFree)
                  000084e4    00000054     rtsv7M3_T_le_eabi.lib : ltoa.obj (.text)
                  00008538    00000054     sysbios.aem3 : BIOS.obj (.text:ti_sysbios_family_arm_m3_Hwi_dispatchC__I)
                  0000858c    00000054     water_sensor_wireless_comm_pem3.oem3 (.text:ti_sysbios_knl_Swi_construct)
                  000085e0    00000054     sysbios.aem3 : BIOS.obj (.text:ti_sysbios_knl_Swi_schedule__I)
                  00008634    00000050     driverlib.lib : setup_rom.obj (.text:NOROM_SetupSetCacheModeAccordingToCcfgSetting)
                  00008684    00000050     rf_singleMode_cc13xxware.aem3 : RFCC26XX_singleMode.oem3 (.text:dispatchOpWhen)
                  000086d4    00000050                                   : RFCC26XX_singleMode.oem3 (.text:syncCb)
                  00008724    00000050     sysbios.aem3 : BIOS.obj (.text:ti_sysbios_knl_Swi_runLoop__I)
                  00008774    00000050                  : BIOS.obj (.text:xdc_runtime_Startup_exec__E)
                  000087c4    0000004c     ToServer_Com.obj (.text:ToServerCom_init)
                  00008810    0000004c     rf_singleMode_cc13xxware.aem3 : RFCC26XX_singleMode.oem3 (.text:applyRfCorePatch)
                  0000885c    0000004c     rtsv7M3_T_le_eabi.lib : atoi.obj (.text)
                  000088a8    0000004c                           : cpy_tbl.obj (.text)
                  000088f4    0000004c     drivers_cc13xxware.aem3 : UARTCC26XX.oem3 (.text:startTxFifoEmptyClk)
                  00008940    0000004c     sysbios.aem3 : m3_TaskSupport_asm.obj (.text:ti_sysbios_family_arm_m3_TaskSupport_buildTaskStack)
                  0000898c    0000004c     ti.uia.loggers.aem3 : LoggerStopMode.oem3 (.text:ti_uia_loggers_LoggerStopMode_Module_startup__E)
                  000089d8    00000048     driverlib.lib : chipinfo.obj (.text:NOROM_ChipInfo_GetChipFamily)
                  00008a20    00000048     drivers_cc13xxware.aem3 : PINCC26XX.oem3 (.text:PIN_setOutputEnable)
                  00008a68    00000048                             : PINCC26XX.oem3 (.text:PIN_swi)
                  00008ab0    00000048     RF_Com.obj (.text:RFCom_receivePacket)
                  00008af8    00000048     rf_singleMode_cc13xxware.aem3 : RFCC26XX_singleMode.oem3 (.text:RF_runCmd)
                  00008b40    00000048     drivers_cc13xxware.aem3 : PowerCC26XX.oem3 (.text:notify)
                  00008b88    00000048     rtsv7M3_T_le_eabi.lib : fd_toi_t2.obj (.text)
                  00008bd0    00000048     sysbios.aem3 : BIOS.obj (.text:ti_sysbios_family_arm_m3_Hwi_Module_startup__E)
                  00008c18    00000048                  : m3_Hwi_asm_switch.obj (.text:ti_sysbios_family_arm_m3_Hwi_initStacks__E)
                  00008c60    00000048                  : BIOS.obj (.text:ti_sysbios_heaps_HeapMem_getStats__E)
                  00008ca8    00000048                  : BIOS.obj (.text:xdc_runtime_Assert_raise__I)
                  00008cf0    00000048                  : BIOS.obj (.text:xdc_runtime_Core_assignParams__I)
                  00008d38    00000048                  : BIOS.obj (.text:xdc_runtime_Core_constructObject__I)
                  00008d80    00000046     drivers_cc13xxware.aem3 : RingBuf.oem3 (.text:RingBuf_put)
                  00008dc6    00000002     smartrf_settings_predefined.obj (.text:enterGenookSysPatch)
                  00008dc8    00000044     boot.aem3 : boot.oem3 (.text)
                  00008e0c    00000044     sysbios.aem3 : BIOS.obj (.text:ti_sysbios_family_arm_m3_Hwi_disableInterrupt__E)
                  00008e50    00000044                  : BIOS.obj (.text:ti_sysbios_family_arm_m3_Hwi_enableInterrupt__E)
                  00008e94    00000044                  : BIOS.obj (.text:ti_sysbios_knl_Swi_post__E)
                  00008ed8    00000044                  : BIOS.obj (.text:ti_sysbios_knl_Task_allBlockedFunction__I)
                  00008f1c    00000044     ti.uia.loggers.aem3 : LoggerStopMode.oem3 (.text:ti_uia_loggers_LoggerStopMode_initBuffer__I)
                  00008f60    00000044     sysbios.aem3 : BIOS.obj (.text:xdc_runtime_SysMin_flush__E)
                  00008fa4    00000040     drivers_cc13xxware.aem3 : RingBuf.oem3 (.text:RingBuf_get)
                  00008fe4    00000040     sysbios.aem3 : BIOS.obj (.text:ti_sysbios_family_arm_m3_Hwi_getStackInfo__E)
                  00009024    0000003c     driverlib.lib : osc.obj (.text:NOROM_OSC_HPOSCRelativeFrequencyOffsetGet)
                  00009060    0000003c                   : rfc.obj (.text:NOROM_RFCSynthPowerDown)
                  0000909c    0000003c     drivers_cc13xxware.aem3 : PINCC26XX.oem3 (.text:PIN_setOutputValue)
                  000090d8    0000003c                             : UARTCC26XX.oem3 (.text:UARTCC26XX_swiIntFxn)
                  00009114    0000003a     sysbios.aem3 : BIOS.obj (.text:ti_sysbios_knl_Task_exit__E)
                  0000914e    00000002     smartrf_settings_predefined.obj (.text:enterLrmSysPatch)
                  00009150    00000038     drivers_cc13xxware.aem3 : UART.oem3 (.text:UART_init)
                  00009188    00000038                             : UARTCC26XX.oem3 (.text:readData)
                  000091c0    00000038     sysbios.aem3 : BIOS.obj (.text:ti_sysbios_family_arm_cc26xx_Timer_getCurrentTick__E)
                  000091f8    00000038                  : BIOS.obj (.text:ti_sysbios_family_arm_m3_Hwi_Instance_finalize__E)
                  00009230    00000038                  : BIOS.obj (.text:ti_sysbios_heaps_HeapMem_Instance_init__E)
                  00009268    00000038                  : BIOS.obj (.text:ti_sysbios_knl_Clock_Instance_init__E)
                  000092a0    00000038     drivers_cc13xxware.aem3 : UARTCC26XX.oem3 (.text:writeData)
                  000092d8    00000038     sysbios.aem3 : BIOS.obj (.text:xdc_runtime_SysMin_putch__E)
                  00009310    00000038                  : BIOS.obj (.text:xdc_runtime_System_atexit__E)
                  00009348    00000036     rtsv7M3_T_le_eabi.lib : strncpy.obj (.text)
                  0000937e    00000036     rf_singleMode_cc13xxware.aem3 : RFCC26XX_singleMode.oem3 (.text:updateImplicitState)
                  000093b4    00000034     driverlib.lib : osc.obj (.text:NOROM_OSCHF_SwitchToRcOscTurnOffXosc)
                  000093e8    00000034     drivers_cc13xxware.aem3 : PINCC26XX.oem3 (.text:PIN_setConfig)
                  0000941c    00000034     rf_singleMode_cc13xxware.aem3 : RFCC26XX_singleMode.oem3 (.text:Q_push)
                  00009450    00000034     drivers_cc13xxware.aem3 : UARTCC26XX.oem3 (.text:readData2RingBuf)
                  00009484    00000034     sysbios.aem3 : BIOS.obj (.text:ti_sysbios_family_arm_cc26xx_Timer_initDevice__I)
                  000094b8    00000034                  : BIOS.obj (.text:ti_sysbios_heaps_HeapMem_init__I)
                  000094ec    00000034     water_sensor_wireless_comm_pem3.oem3 (.text:ti_sysbios_knl_Clock_construct)
                  00009520    00000034     water_sensor_wireless_comm_pem3.oem3 (.text:ti_sysbios_knl_Semaphore_create)
                  00009554    00000034     sysbios.aem3 : BIOS.obj (.text:ti_sysbios_knl_Swi_restore__E)
                  00009588    00000034                  : BIOS.obj (.text:ti_sysbios_knl_Task_blockI__E)
                  000095bc    00000034                  : BIOS.obj (.text:ti_sysbios_utils_Load_updateCurrentThreadTime__E)
                  000095f0    00000034     ti.uia.loggers.aem3 : LoggerStopMode.oem3 (.text:ti_uia_loggers_LoggerStopMode_reset__E)
                  00009624    00000034     sysbios.aem3 : BIOS.obj (.text:xdc_runtime_Core_assignLabel__I)
                  00009658    00000032                  : BIOS.obj (.text:ti_sysbios_family_arm_cc26xx_Timer_setNextTick__E)
                  0000968a    00000002                  : BIOS.obj (.text:ti_sysbios_BIOS_linkedWithIncorrectBootLibrary__E)
                  0000968c    00000030     driverlib.lib : chipinfo.obj (.text:NOROM_ChipInfo_GetChipType)
                  000096bc    00000030                   : setup_rom.obj (.text:NOROM_SetupSetAonRtcSubSecInc)
                  000096ec    00000030     drivers_cc13xxware.aem3 : PowerCC26XX.oem3 (.text:Power_releaseConstraint)
                  0000971c    00000030                             : PowerCC26XX.oem3 (.text:Power_setConstraint)
                  0000974c    00000030                             : UART.oem3 (.text:UART_open)
                  0000977c    00000030     rf_singleMode_cc13xxware.aem3 : RFCC26XX_singleMode.oem3 (.text:clkPowerUpFxn)
                  000097ac    00000030     receptor.obj (.text:doReception)
                  000097dc    00000030     water_sensor_wireless_comm_pem3.oem3 (.text:ti_sysbios_BIOS_atExitFunc__I)
                  0000980c    00000030     water_sensor_wireless_comm_pem3.oem3 (.text:ti_sysbios_BIOS_startFunc__I)
                  0000983c    00000030     sysbios.aem3 : BIOS.obj (.text:ti_sysbios_family_arm_cc26xx_Timer_setThreshold__I)
                  0000986c    00000030     water_sensor_wireless_comm_pem3.oem3 (.text:ti_sysbios_gates_GateHwi_Object__create__S)
                  0000989c    00000030     water_sensor_wireless_comm_pem3.oem3 (.text:ti_sysbios_gates_GateMutex_Object__create__S)
                  000098cc    00000030     sysbios.aem3 : BIOS.obj (.text:ti_sysbios_gates_GateMutex_enter__E)
                  000098fc    00000030     water_sensor_wireless_comm_pem3.oem3 (.text:ti_sysbios_heaps_HeapMem_Object__create__S)
                  0000992c    00000030     sysbios.aem3 : BIOS.obj (.text:ti_sysbios_heaps_HeapMem_free__E)
                  0000995c    00000030     water_sensor_wireless_comm_pem3.oem3 (.text:ti_sysbios_knl_Semaphore_construct)
                  0000998c    00000030     sysbios.aem3 : BIOS.obj (.text:ti_sysbios_knl_Task_processVitalTaskFlag__I)
                  000099bc    00000030     water_sensor_wireless_comm_pem3.oem3 (.text:ti_uia_loggers_LoggerStopMode_Object__create__S)
                  000099ec    00000030     sysbios.aem3 : BIOS.obj (.text:xdc_runtime_SysMin_abort__E)
                  00009a1c    00000030                  : BIOS.obj (.text:xdc_runtime_System_processAtExit__E)
                  00009a4c    0000002e     water_sensor_wireless_comm_pem3.oem3 (.text:malloc)
                  00009a7a    0000002e     rtsv7M3_T_le_eabi.lib : i_tofd_t2.obj (.text)
                  00009aa8    0000002e     sysbios.aem3 : BIOS.obj (.text:ti_sysbios_family_arm_m3_TaskSupport_start__E)
                  00009ad6    0000002e                  : BIOS.obj (.text:ti_sysbios_hal_Hwi_initStack)
                  00009b04    0000002c     driverlib.lib : ddi.obj (.text:NOROM_DDI32RegWrite)
                  00009b30    0000002c                   : osc.obj (.text:NOROM_OSCClockSourceGet)
                  00009b5c    0000002c                   : setup_rom.obj (.text:NOROM_SetupGetTrimForRadcExtCfg)
                  00009b88    0000002c     drivers_cc13xxware.aem3 : PINCC26XX.oem3 (.text:PINCC26XX_setMux)
                  00009bb4    0000002c     ToServer_Com.obj (.text:ToServerCom_write)
                  00009be0    0000002c     rf_singleMode_cc13xxware.aem3 : RFCC26XX_singleMode.oem3 (.text:getCmd)
                  00009c0c    0000002c     sysbios.aem3 : BIOS.obj (.text:ti_sysbios_knl_Clock_getTicksUntilInterrupt__E)
                  00009c38    0000002c     water_sensor_wireless_comm_pem3.oem3 (.text:ti_sysbios_knl_Queue_construct)
                  00009c64    0000002c     sysbios.aem3 : BIOS.obj (.text:ti_sysbios_knl_Semaphore_pendTimeout__I)
                  00009c90    0000002c                  : BIOS.obj (.text:ti_sysbios_knl_Task_unblockI__E)
                  00009cbc    0000002c                  : BIOS.obj (.text:xdc_runtime_Text_cordText__E)
                  00009ce8    00000028     driverlib.lib : aon_batmon.obj (.text:NOROM_AONBatMonTemperatureGetDegC)
                  00009d10    00000028     drivers_cc13xxware.aem3 : PowerCC26XX.oem3 (.text:Power_registerNotify)
                  00009d38    00000028     rf_singleMode_cc13xxware.aem3 : RFCC26XX_singleMode.oem3 (.text:Q_end)
                  00009d60    00000028     driverlib.lib : adi.obj (.text:SafeHapiVoid)
                  00009d88    00000028     sysbios.aem3 : BIOS.obj (.text:ti_sysbios_knl_Clock_addI__E)
                  00009db0    00000028                  : BIOS.obj (.text:ti_sysbios_knl_Task_restore__E)
                  00009dd8    00000026     drivers_cc13xxware.aem3 : List.oem3 (.text:List_put)
                  00009dfe    00000002     water_sensor_wireless_comm_pem3.oem3 (.text:ti_sysbios_BIOS_nullFunc__I)
                  00009e00    00000024     drivers_cc13xxware.aem3 : PINCC26XX.oem3 (.text:PINCC26XX_getPinCount)
                  00009e24    00000024                             : PowerCC26XX_calibrateRCOSC.oem3 (.text:getTdcSemaphore)
                  00009e48    00000024     rf_singleMode_cc13xxware.aem3 : RFCC26XX_singleMode.oem3 (.text:hwiFxnCpe0PowerFsm)
                  00009e6c    00000024     water_sensor_wireless_comm_pem3.oem3 (.text:ti_sysbios_BIOS_registerRTSLock__I)
                  00009e90    00000024     water_sensor_wireless_comm_pem3.oem3 (.text:ti_sysbios_BIOS_removeRTSLock__I)
                  00009eb4    00000024     sysbios.aem3 : BIOS.obj (.text:ti_sysbios_family_arm_cc26xx_Timer_Module_startup__E)
                  00009ed8    00000024                  : BIOS.obj (.text:ti_sysbios_family_arm_cc26xx_Timer_getMaxTicks__E)
                  00009efc    00000024                  : BIOS.obj (.text:ti_sysbios_family_arm_cc26xx_Timer_startup__E)
                  00009f20    00000024     water_sensor_wireless_comm_pem3.oem3 (.text:ti_sysbios_gates_GateMutex_Object__delete__S)
                  00009f44    00000024     sysbios.aem3 : BIOS.obj (.text:ti_sysbios_knl_Semaphore_Instance_init__E)
                  00009f68    00000024                  : BIOS.obj (.text:ti_sysbios_knl_Swi_Module_startup__E)
                  00009f8c    00000024                  : BIOS.obj (.text:ti_sysbios_utils_Load_updateThreadContexts__E)
                  00009fb0    00000022                  : BIOS.obj (.text:ti_sysbios_family_arm_cc26xx_Timer_postInit__I)
                  00009fd2    00000022     water_sensor_wireless_comm_pem3.oem3 (.text:xdc_runtime_SysMin_output__I)
                  00009ff4    00000020     driverlib.lib : rfc.obj (.text:NOROM_RFCAdi3VcoLdoVoltageMode)
                  0000a014    00000020                   : rfc.obj (.text:NOROM_RFCDoorbellSendTo)
                  0000a034    00000020                   : setup_rom.obj (.text:NOROM_SetupGetTrimForXoscHfCtl)
                  0000a054    00000020     drivers_cc13xxware.aem3 : PowerCC26XX.oem3 (.text:Power_unregisterNotify)
                  0000a074    00000020     rf_singleMode_cc13xxware.aem3 : RFCC26XX_singleMode.oem3 (.text:allocCmd)
                  0000a094    00000020     rtsv7M3_T_le_eabi.lib : memchr.obj (.text)
                  0000a0b4    00000020     water_sensor_wireless_comm_pem3.oem3 (.text:ti_sysbios_BIOS_rtsLock__I)
                  0000a0d4    00000020     sysbios.aem3 : BIOS.obj (.text:ti_sysbios_family_arm_cc26xx_Timer_dynamicStub__E)
                  0000a0f4    00000020                  : BIOS.obj (.text:ti_sysbios_family_arm_cc26xx_TimestampProvider_Module_startup__E)
                  0000a114    00000020                  : m3_Hwi_asm.obj (.text:ti_sysbios_family_arm_m3_Hwi_excHandlerAsm__I)
                  0000a134    00000020                  : BIOS.obj (.text:ti_sysbios_family_arm_m3_Hwi_excHandler__I)
                  0000a154    00000020     water_sensor_wireless_comm_pem3.oem3 (.text:ti_sysbios_gates_GateHwi_Object__delete__S)
                  0000a174    00000020     water_sensor_wireless_comm_pem3.oem3 (.text:ti_sysbios_heaps_HeapMem_Object__delete__S)
                  0000a194    00000020     sysbios.aem3 : BIOS.obj (.text:ti_sysbios_knl_Clock_Module_startup__E)
                  0000a1b4    00000020     water_sensor_wireless_comm_pem3.oem3 (.text:ti_sysbios_knl_Clock_Object__destruct__S)
                  0000a1d4    00000020     sysbios.aem3 : BIOS.obj (.text:ti_sysbios_knl_Clock_getTicks__E)
                  0000a1f4    00000020                  : BIOS.obj (.text:ti_sysbios_knl_Clock_stop__E)
                  0000a214    00000020                  : BIOS.obj (.text:ti_sysbios_knl_Idle_run__E)
                  0000a234    00000020     water_sensor_wireless_comm_pem3.oem3 (.text:ti_sysbios_knl_Semaphore_Object__destruct__S)
                  0000a254    00000020     sysbios.aem3 : BIOS.obj (.text:ti_sysbios_knl_Task_restoreHwi__E)
                  0000a274    00000020     water_sensor_wireless_comm_pem3.oem3 (.text:ti_uia_loggers_LoggerStopMode_Object__delete__S)
                  0000a294    00000020     sysbios.aem3 : BIOS.obj (.text:xdc_runtime_SysMin_Module_startup__E)
                  0000a2b4    0000001e     drivers_cc13xxware.aem3 : PINCC26XX.oem3 (.text:PIN_close)
                  0000a2d2    0000001e                             : PowerCC26XX.oem3 (.text:Power_getTransitionLatency)
                  0000a2f0    0000001e     sysbios.aem3 : m3_Hwi_asm_switch.obj (.text:ti_sysbios_family_xxx_Hwi_switchAndRunFunc)
                  0000a30e    00000002                  : BIOS.obj (.text:ti_sysbios_gates_GateHwi_Instance_init__E)
                  0000a310    0000001c     driverlib.lib : setup_rom.obj (.text:NOROM_SetupGetTrimForAmpcompTh2)
                  0000a32c    0000001c                   : setup_rom.obj (.text:NOROM_SetupGetTrimForRcOscLfRtuneCtuneTrim)
                  0000a348    0000001c     drivers_cc13xxware.aem3 : PINCC26XX.oem3 (.text:PINCC26XX_setIoCfgMux)
                  0000a364    0000001c                             : PINCC26XX.oem3 (.text:PIN_hwi)
                  0000a380    0000001c     smartrf_settings.obj (.text:enterGenfskCpePatch)
                  0000a39c    0000001c     smartrf_settings_predefined.obj (.text:enterGenfskCpePatch)
                  0000a3b8    0000001c     smartrf_settings_predefined.obj (.text:enterGenookCpePatch)
                  0000a3d4    0000001c     smartrf_settings_predefined.obj (.text:enterLrmCpePatch)
                  0000a3f0    0000001c     water_sensor_wireless_comm_pem3.oem3 (.text:ti_sysbios_family_arm_m3_Hwi_Object__destruct__S)
                  0000a40c    0000001c     sysbios.aem3 : BIOS.obj (.text:ti_sysbios_family_arm_m3_Hwi_setPriority__E)
                  0000a428    0000001c                  : BIOS.obj (.text:ti_sysbios_gates_GateMutex_Instance_init__E)
                  0000a444    0000001c                  : BIOS.obj (.text:ti_sysbios_knl_Clock_scheduleNextTick__E)
                  0000a460    0000001c     water_sensor_wireless_comm_pem3.oem3 (.text:ti_sysbios_knl_Queue_Object__destruct__S)
                  0000a47c    0000001c     sysbios.aem3 : BIOS.obj (.text:ti_sysbios_knl_Queue_put__E)
                  0000a498    0000001c     water_sensor_wireless_comm_pem3.oem3 (.text:ti_sysbios_knl_Swi_Object__destruct__S)
                  0000a4b4    0000001c     sysbios.aem3 : BIOS.obj (.text:ti_sysbios_knl_Task_enter__I)
                  0000a4d0    0000001c     ti.uia.loggers.aem3 : LoggerStopMode.oem3 (.text:ti_uia_loggers_LoggerStopMode_Instance_init__E)
                  0000a4ec    0000001c     sysbios.aem3 : BIOS.obj (.text:xdc_runtime_Error_check__E)
                  0000a508    0000001c                  : BIOS.obj (.text:xdc_runtime_Error_raiseX__E)
                  0000a524    0000001c                  : BIOS.obj (.text:xdc_runtime_Memory_valloc__E)
                  0000a540    0000001c                  : BIOS.obj (.text:xdc_runtime_SysMin_exit__E)
                  0000a55c    0000001c                  : BIOS.obj (.text:xdc_runtime_System_abort__E)
                  0000a578    0000001a     drivers_cc13xxware.aem3 : List.oem3 (.text:List_remove)
                  0000a592    0000001a     rtsv7M3_T_le_eabi.lib : memccpy.obj (.text)
                  0000a5ac    0000001a     sysbios.aem3 : m3_Hwi_asm.obj (.text:ti_sysbios_family_arm_m3_Hwi_pendSV__I)
                  0000a5c6    00000002                  : BIOS.obj (.text:ti_sysbios_knl_Clock_logTick__E)
                  0000a5c8    00000018     driverlib.lib : aon_rtc.obj (.text:NOROM_AONRTCCurrentCompareValueGet)
                  0000a5e0    00000018                   : chipinfo.obj (.text:NOROM_ChipInfo_GetPackageType)
                  0000a5f8    00000018                   : osc.obj (.text:NOROM_OSCHF_TurnOnXosc)
                  0000a610    00000018                   : rfc.obj (.text:NOROM_RFCCpeIntGetAndClear)
                  0000a628    00000018                   : setup_rom.obj (.text:NOROM_SetupGetTrimForAdcShModeEn)
                  0000a640    00000018                   : setup_rom.obj (.text:NOROM_SetupGetTrimForAdcShVbufEn)
                  0000a658    00000018                   : setup_rom.obj (.text:NOROM_SetupGetTrimForAmpcompTh1)
                  0000a670    00000018                   : setup_rom.obj (.text:NOROM_SetupGetTrimForDblrLoopFilterResetVoltage)
                  0000a688    00000018                   : setup_rom.obj (.text:NOROM_SetupGetTrimForRcOscLfIBiasTrim)
                  0000a6a0    00000018                   : setup_rom.obj (.text:NOROM_SetupGetTrimForXoscLfRegulatorAndCmirrwrRatio)
                  0000a6b8    00000018     drivers_cc13xxware.aem3 : PowerCC26XX.oem3 (.text:Power_idleFunc)
                  0000a6d0    00000018     rf_singleMode_cc13xxware.aem3 : RFCC26XX_singleMode.oem3 (.text:Q_pop)
                  0000a6e8    00000018     drivers_cc13xxware.aem3 : UARTCC26XX.oem3 (.text:UARTCC26XX_init)
                  0000a700    00000018                             : UART.oem3 (.text:UART_Params_init)
                  0000a718    00000018                             : PowerCC26XX.oem3 (.text:configureRFCoreClocks)
                  0000a730    00000018     water_sensor_wireless_comm_pem3.oem3 (.text:free)
                  0000a748    00000018     rtsv7M3_T_le_eabi.lib : args_main.obj (.text)
                  0000a760    00000018                           : ll_mul_t2.obj (.text)
                  0000a778    00000018                           : strcmp.obj (.text)
                  0000a790    00000018     rf_singleMode_cc13xxware.aem3 : RFCC26XX_singleMode.oem3 (.text:swiFxnFsm)
                  0000a7a8    00000018     water_sensor_wireless_comm_pem3.oem3 (.text:ti_sysbios_BIOS_rtsUnlock__I)
                  0000a7c0    00000018     water_sensor_wireless_comm_pem3.oem3 (.text:ti_sysbios_family_arm_cc26xx_Timer_Module__startupDone__F)
                  0000a7d8    00000018     sysbios.aem3 : BIOS.obj (.text:ti_sysbios_family_arm_cc26xx_TimestampProvider_get64__E)
                  0000a7f0    00000018     water_sensor_wireless_comm_pem3.oem3 (.text:ti_sysbios_family_arm_m3_Hwi_Module__startupDone__F)
                  0000a808    00000018     sysbios.aem3 : BIOS.obj (.text:ti_sysbios_family_arm_m3_Hwi_plug__E)
                  0000a820    00000018     water_sensor_wireless_comm_pem3.oem3 (.text:ti_sysbios_gates_GateHwi_Handle__label__S)
                  0000a838    00000018     water_sensor_wireless_comm_pem3.oem3 (.text:ti_sysbios_gates_GateMutex_Handle__label__S)
                  0000a850    00000018     sysbios.aem3 : BIOS.obj (.text:ti_sysbios_gates_GateMutex_leave__E)
                  0000a868    00000018     water_sensor_wireless_comm_pem3.oem3 (.text:ti_sysbios_heaps_HeapMem_Handle__label__S)
                  0000a880    00000018     sysbios.aem3 : BIOS.obj (.text:ti_sysbios_knl_Swi_or__E)
                  0000a898    00000018                  : BIOS.obj (.text:ti_sysbios_knl_Task_unblock__E)
                  0000a8b0    00000018     water_sensor_wireless_comm_pem3.oem3 (.text:ti_uia_loggers_LoggerStopMode_Handle__label__S)
                  0000a8c8    00000018     sysbios.aem3 : BIOS.obj (.text:xdc_runtime_System_exit__E)
                  0000a8e0    00000018                  : BIOS.obj (.text:xdc_runtime_Text_ropeText__E)
                  0000a8f8    00000016     driverlib.lib : chipinfo.obj (.text:NOROM_ThisCodeIsBuiltForCC13xxHwRev20AndLater_HaltIfViolated)
                  0000a90e    00000016     rtsv7M3_T_le_eabi.lib : strchr.obj (.text)
                  0000a924    00000016                           : strcpy.obj (.text)
                  0000a93a    00000016     water_sensor_wireless_comm_pem3.oem3 (.text:ti_sysbios_BIOS_exitFunc__I)
                  0000a950    00000016     sysbios.aem3 : BIOS.obj (.text:ti_sysbios_knl_Clock_Instance_finalize__E)
                  0000a966    00000016                  : BIOS.obj (.text:ti_sysbios_knl_Clock_start__E)
                  0000a97c    00000016     EasyLink.obj (.text:ti_sysbios_knl_Semaphore_Params_init)
                  0000a992    00000016     main.obj (.text:ti_sysbios_knl_Task_Params_init)
                  0000a9a8    00000016     ti.uia.loggers.aem3 : LoggerStopMode.oem3 (.text:ti_uia_loggers_LoggerStopMode_disable__E)
                  0000a9be    00000016                         : LoggerStopMode.oem3 (.text:ti_uia_loggers_LoggerStopMode_enable__E)
                  0000a9d4    00000014     driverlib.lib : aon_rtc.obj (.text:NOROM_AONRTCCurrent64BitValueGet)
                  0000a9e8    00000014     rf_singleMode_cc13xxware.aem3 : RFCC26XX_singleMode.oem3 (.text:RF_Params_init)
                  0000a9fc    00000014     rtsv7M3_T_le_eabi.lib : _lock.obj (.text)
                  0000aa10    00000014                           : strlen.obj (.text)
                  0000aa24    00000014     water_sensor_wireless_comm_pem3.oem3 (.text:ti_sysbios_family_arm_m3_Hwi_Object__get__S)
                  0000aa38    00000014     sysbios.aem3 : BIOS.obj (.text:ti_sysbios_family_arm_m3_Hwi_switchFromBootStack__E)
                  0000aa4c    00000014     water_sensor_wireless_comm_pem3.oem3 (.text:ti_sysbios_heaps_HeapMem_Object__get__S)
                  0000aa60    00000014     water_sensor_wireless_comm_pem3.oem3 (.text:ti_sysbios_knl_Clock_doTick__I)
                  0000aa74    00000014     water_sensor_wireless_comm_pem3.oem3 (.text:ti_sysbios_knl_Swi_Object__get__S)
                  0000aa88    00000012     drivers_cc13xxware.aem3 : RingBuf.oem3 (.text:RingBuf_construct)
                  0000aa9a    00000012     sysbios.aem3 : BIOS.obj (.text:ti_sysbios_hal_Hwi_Module_startup__E)
                  0000aaac    00000012     water_sensor_wireless_comm_pem3.oem3 (.text:xdc_runtime_Startup_exec__I)
                  0000aabe    00000002     sysbios.aem3 : BIOS.obj (.text:ti_sysbios_knl_Clock_triggerFunc__I)
                  0000aac0    00000010     rf_singleMode_cc13xxware.aem3 : RFCC26XX_singleMode.oem3 (.text:FsmDispatch)
                  0000aad0    00000010     driverlib.lib : rfc.obj (.text:NOROM_RFCRfTrimSet)
                  0000aae0    00000010                   : setup_rom.obj (.text:NOROM_SetupGetTrimForXoscHfFastStart)
                  0000aaf0    00000010                   : setup_rom.obj (.text:NOROM_SetupGetTrimForXoscHfIbiastherm)
                  0000ab00    00000010     RF_Com.obj (.text:RFCom_init)
                  0000ab10    00000010     smartrf_settings.obj (.text:applyGenfskPatch)
                  0000ab20    00000010     smartrf_settings_predefined.obj (.text:applyGenfskPatch)
                  0000ab30    00000010     smartrf_settings_predefined.obj (.text:applyGenookPatch)
                  0000ab40    00000010     smartrf_settings_predefined.obj (.text:applyLrmPatch)
                  0000ab50    00000010     sysbios.aem3 : BIOS.obj (.text:ti_sysbios_BIOS_exit__E)
                  0000ab60    00000010                  : BIOS.obj (.text:ti_sysbios_BIOS_getCpuFreq__E)
                  0000ab70    00000010                  : BIOS.obj (.text:ti_sysbios_BIOS_setThreadType__E)
                  0000ab80    00000010                  : BIOS.obj (.text:ti_sysbios_BIOS_start__E)
                  0000ab90    00000010                  : BIOS.obj (.text:ti_sysbios_family_arm_m3_Hwi_post__E)
                  0000aba0    00000010                  : m3_TaskSupport_asm.obj (.text:ti_sysbios_family_arm_m3_TaskSupport_glue)
                  0000abb0    00000010                  : m3_TaskSupport_asm.obj (.text:ti_sysbios_family_arm_m3_TaskSupport_swap__E)
                  0000abc0    00000010                  : BIOS.obj (.text:ti_sysbios_gates_GateMutex_Instance_finalize__E)
                  0000abd0    00000010                  : BIOS.obj (.text:ti_sysbios_knl_Semaphore_Instance_finalize__E)
                  0000abe0    00000010                  : BIOS.obj (.text:ti_sysbios_knl_Swi_disable__E)
                  0000abf0    00000010                  : BIOS.obj (.text:ti_sysbios_knl_Swi_enabled__E)
                  0000ac00    00000010     water_sensor_wireless_comm_pem3.oem3 (.text:ti_sysbios_knl_Task_Object__get__S)
                  0000ac10    00000010     sysbios.aem3 : BIOS.obj (.text:ti_sysbios_knl_Task_disable__E)
                  0000ac20    00000010     water_sensor_wireless_comm_pem3.oem3 (.text:ti_uia_loggers_LoggerStopMode_Object__get__S)
                  0000ac30    00000010     ti.uia.loggers.aem3 : LoggerStopMode.oem3 (.text:ti_uia_loggers_LoggerStopMode_isEmpty__E)
                  0000ac40    00000010     drivers_cc13xxware.aem3 : UARTCC26XX.oem3 (.text:uartPostNotify)
                  0000ac50    00000010     sysbios.aem3 : BIOS.obj (.text:xdc_runtime_Gate_leaveSystem__E)
                  0000ac60    00000010                  : BIOS.obj (.text:xdc_runtime_Memory_free__E)
                  0000ac70    0000000e     driverlib.lib : vims.obj (.text:NOROM_VIMSModeGet)
                  0000ac7e    0000000e     rtsv7M3_T_le_eabi.lib : copy_decompress_none.obj (.text:decompress:none)
                  0000ac8c    0000000e     sysbios.aem3 : BIOS.obj (.text:ti_sysbios_family_arm_cc26xx_TimestampProvider_get32__E)
                  0000ac9a    0000000e                  : BIOS.obj (.text:ti_sysbios_family_arm_m3_TaskSupport_checkStack__E)
                  0000aca8    0000000e                  : BIOS.obj (.text:ti_sysbios_heaps_HeapMem_restore__E)
                  0000acb6    0000000e                  : BIOS.obj (.text:ti_sysbios_knl_Queue_empty__E)
                  0000acc4    0000000e                  : BIOS.obj (.text:ti_sysbios_knl_Queue_remove__E)
                  0000acd2    00000002                  : BIOS.obj (.text:ti_sysbios_knl_Swi_Instance_finalize__E)
                  0000acd4    0000000c     rf_singleMode_cc13xxware.aem3 : RFCC26XX_singleMode.oem3 (.text:FsmNextState)
                  0000ace0    0000000c     driverlib.lib : cpu.obj (.text:NOROM_CPUcpsid)
                  0000acec    0000000c                   : cpu.obj (.text:NOROM_CPUcpsie)
                  0000acf8    0000000c     drivers_cc13xxware.aem3 : PowerCC26XX.oem3 (.text:Power_getConstraintMask)
                  0000ad04    0000000c                             : PowerCC26XX.oem3 (.text:Power_getDependencyCount)
                  0000ad10    0000000c     rtsv7M3_T_le_eabi.lib : copy_zero_init.obj (.text:decompress:ZI)
                  0000ad1c    0000000c     main.obj (.text:taskRx)
                  0000ad28    0000000c     sysbios.aem3 : BIOS.obj (.text:ti_sysbios_BIOS_getThreadType__E)
                  0000ad34    0000000c                  : BIOS.obj (.text:ti_sysbios_family_arm_cc26xx_TimestampProvider_getFreq__E)
                  0000ad40    0000000c     water_sensor_wireless_comm_pem3.oem3 (.text:ti_sysbios_family_arm_m3_Hwi_Params__init__S)
                  0000ad4c    0000000c     sysbios.aem3 : BIOS.obj (.text:ti_sysbios_family_arm_m3_Hwi_disableFxn__E)
                  0000ad58    0000000c                  : BIOS.obj (.text:ti_sysbios_family_arm_m3_TaskSupport_getStackAlignment__E)
                  0000ad64    0000000c                  : BIOS.obj (.text:ti_sysbios_gates_GateHwi_enter__E)
                  0000ad70    0000000c     water_sensor_wireless_comm_pem3.oem3 (.text:ti_sysbios_knl_Clock_Params__init__S)
                  0000ad7c    0000000c     sysbios.aem3 : BIOS.obj (.text:ti_sysbios_knl_Clock_getTimerHandle__E)
                  0000ad88    0000000c     water_sensor_wireless_comm_pem3.oem3 (.text:ti_sysbios_knl_Queue_Object__get__S)
                  0000ad94    0000000c     sysbios.aem3 : BIOS.obj (.text:ti_sysbios_knl_Queue_dequeue__E)
                  0000ada0    0000000c                  : BIOS.obj (.text:ti_sysbios_knl_Queue_enqueue__E)
                  0000adac    0000000c     water_sensor_wireless_comm_pem3.oem3 (.text:ti_sysbios_knl_Semaphore_Params__init__S)
                  0000adb8    0000000c     water_sensor_wireless_comm_pem3.oem3 (.text:ti_sysbios_knl_Swi_Params__init__S)
                  0000adc4    0000000c     sysbios.aem3 : BIOS.obj (.text:ti_sysbios_knl_Swi_getTrigger__E)
                  0000add0    0000000c     water_sensor_wireless_comm_pem3.oem3 (.text:ti_sysbios_knl_Task_Params__init__S)
                  0000addc    0000000c     sysbios.aem3 : BIOS.obj (.text:ti_sysbios_knl_Task_self__E)
                  0000ade8    0000000c                  : BIOS.obj (.text:xdc_runtime_Error_init__E)
                  0000adf4    0000000c                  : BIOS.obj (.text:xdc_runtime_Gate_enterSystem__E)
                  0000ae00    0000000c                  : BIOS.obj (.text:xdc_runtime_Memory_calloc__E)
                  0000ae0c    0000000c                  : BIOS.obj (.text:xdc_runtime_Memory_getMaxDefaultTypeAlign__E)
                  0000ae18    0000000c                  : BIOS.obj (.text:xdc_runtime_Startup_rtsDone__E)
                  0000ae24    0000000a     drivers_cc13xxware.aem3 : List.oem3 (.text:List_empty)
                  0000ae2e    0000000a                             : UART.oem3 (.text:UART_write)
                  0000ae38    0000000a     water_sensor_wireless_comm_pem3.oem3 (.text:xdc_runtime_IHeap_alloc)
                  0000ae42    0000000a     water_sensor_wireless_comm_pem3.oem3 (.text:xdc_runtime_IHeap_free)
                  0000ae4c    00000008     drivers_cc13xxware.aem3 : UARTCC26XX.oem3 (.text:readSemCallback)
                  0000ae54    00000008     smartrf_settings.obj (.text:rf_patch_cpe_genfsk)
                  0000ae5c    00000008     smartrf_settings_predefined.obj (.text:rf_patch_cpe_genfsk)
                  0000ae64    00000008     smartrf_settings_predefined.obj (.text:rf_patch_cpe_genook)
                  0000ae6c    00000008     smartrf_settings_predefined.obj (.text:rf_patch_cpe_lrm)
                  0000ae74    00000008     rtsv7M3_T_le_eabi.lib : s_copysign.obj (.text)
                  0000ae7c    00000008     sysbios.aem3 : BIOS.obj (.text:ti_sysbios_family_arm_m3_Hwi_doSwiRestore__I)
                  0000ae84    00000008                  : BIOS.obj (.text:ti_sysbios_family_arm_m3_Hwi_startup__E)
                  0000ae8c    00000008                  : BIOS.obj (.text:ti_sysbios_knl_Idle_loop__E)
                  0000ae94    00000008     drivers_cc13xxware.aem3 : UARTCC26XX.oem3 (.text:writeSemCallback)
                  0000ae9c    00000006                             : UARTCC26XX.oem3 (.text:UARTCC26XX_readPolling)
                  0000aea2    00000006                             : UARTCC26XX.oem3 (.text:UARTCC26XX_writePolling)
                  0000aea8    00000006     rf_singleMode_cc13xxware.aem3 : RFCC26XX_singleMode.oem3 (.text:clkInactivityFxn)
                  0000aeae    00000006     sysbios.aem3 : BIOS.obj (.text:ti_sysbios_family_arm_m3_Hwi_doTaskRestore__I)
                  0000aeb4    00000006                  : BIOS.obj (.text:ti_sysbios_family_arm_m3_Hwi_restoreFxn__E)
                  0000aeba    00000006                  : BIOS.obj (.text:ti_sysbios_family_arm_m3_Hwi_setFunc__E)
                  0000aec0    00000006                  : BIOS.obj (.text:ti_sysbios_gates_GateHwi_leave__E)
                  0000aec6    00000006                  : BIOS.obj (.text:ti_sysbios_heaps_HeapMem_isBlocking__E)
                  0000aecc    00000006                  : BIOS.obj (.text:ti_sysbios_knl_Queue_Instance_init__E)
                  0000aed2    00000006                  : BIOS.obj (.text:ti_sysbios_knl_Queue_elemClear__E)
                  0000aed8    00000006                  : BIOS.obj (.text:ti_sysbios_knl_Swi_startup__E)
                  0000aede    00000006                  : BIOS.obj (.text:xdc_runtime_System_Module_startup__E)
                  0000aee4    00000004     tirtosport.aem3 : HwiP_tirtos.oem3 (.text:HwiP_disable)
                  0000aee8    00000004     drivers_cc13xxware.aem3 : List.oem3 (.text:List_head)
                  0000aeec    00000004                             : List.oem3 (.text:List_next)
                  0000aef0    00000004     rf_singleMode_cc13xxware.aem3 : RFCC26XX_singleMode.oem3 (.text:Q_peek)
                  0000aef4    00000004     drivers_cc13xxware.aem3 : PowerCC26XX.oem3 (.text:nopResourceHandler)
                  0000aef8    00000004     water_sensor_wireless_comm_pem3.oem3 (.text:ti_sysbios_BIOS_RtsGateProxy_enter__E)
                  0000aefc    00000004     water_sensor_wireless_comm_pem3.oem3 (.text:ti_sysbios_BIOS_RtsGateProxy_leave__E)
                  0000af00    00000004     sysbios.aem3 : BIOS.obj (.text:ti_sysbios_family_arm_cc26xx_Timer_getCount64__E)
                  0000af04    00000004                  : BIOS.obj (.text:ti_sysbios_family_arm_cc26xx_Timer_setPeriod__E)
                  0000af08    00000004     water_sensor_wireless_comm_pem3.oem3 (.text:ti_sysbios_family_arm_m3_Hwi_destruct)
                  0000af0c    00000004     water_sensor_wireless_comm_pem3.oem3 (.text:ti_sysbios_family_arm_m3_TaskSupport_Module__startupDone__S)
                  0000af10    00000004     sysbios.aem3 : BIOS.obj (.text:ti_sysbios_gates_GateHwi_query__E)
                  0000af14    00000004                  : BIOS.obj (.text:ti_sysbios_gates_GateMutex_query__E)
                  0000af18    00000004     water_sensor_wireless_comm_pem3.oem3 (.text:ti_sysbios_heaps_HeapMem_Module_GateProxy_enter__E)
                  0000af1c    00000004     water_sensor_wireless_comm_pem3.oem3 (.text:ti_sysbios_heaps_HeapMem_Module_GateProxy_leave__E)
                  0000af20    00000004     water_sensor_wireless_comm_pem3.oem3 (.text:ti_sysbios_knl_Clock_TimerProxy_getCurrentTick__E)
                  0000af24    00000004     water_sensor_wireless_comm_pem3.oem3 (.text:ti_sysbios_knl_Clock_TimerProxy_getMaxTicks__E)
                  0000af28    00000004     water_sensor_wireless_comm_pem3.oem3 (.text:ti_sysbios_knl_Clock_TimerProxy_setNextTick__E)
                  0000af2c    00000004     water_sensor_wireless_comm_pem3.oem3 (.text:ti_sysbios_knl_Clock_destruct)
                  0000af30    00000004     sysbios.aem3 : BIOS.obj (.text:ti_sysbios_knl_Clock_removeI__E)
                  0000af34    00000004                  : BIOS.obj (.text:ti_sysbios_knl_Clock_setTimeout__E)
                  0000af38    00000004     water_sensor_wireless_comm_pem3.oem3 (.text:ti_sysbios_knl_Queue_destruct)
                  0000af3c    00000004     sysbios.aem3 : BIOS.obj (.text:ti_sysbios_knl_Queue_head__E)
                  0000af40    00000004                  : BIOS.obj (.text:ti_sysbios_knl_Queue_next__E)
                  0000af44    00000004     water_sensor_wireless_comm_pem3.oem3 (.text:ti_sysbios_knl_Semaphore_destruct)
                  0000af48    00000004     water_sensor_wireless_comm_pem3.oem3 (.text:ti_sysbios_knl_Swi_destruct)
                  0000af4c    00000004     sysbios.aem3 : BIOS.obj (.text:ti_sysbios_knl_Swi_postInit__I)
                  0000af50    00000004                  : BIOS.obj (.text:ti_sysbios_knl_Task_startup__E)
                  0000af54    00000004     ti.uia.loggers.aem3 : LoggerStopMode.oem3 (.text:ti_uia_loggers_LoggerStopMode_getContents__E)
                  0000af58    00000004     water_sensor_wireless_comm_pem3.oem3 (.text:ti_uia_loggers_LoggerStopMode_getFilterLevel__E)
                  0000af5c    00000004     ti.uia.loggers.aem3 : LoggerStopMode.oem3 (.text:ti_uia_loggers_LoggerStopMode_getInstanceId__E)
                  0000af60    00000004                         : LoggerStopMode.oem3 (.text:ti_uia_loggers_LoggerStopMode_getMaxLength__E)
                  0000af64    00000004                         : LoggerStopMode.oem3 (.text:ti_uia_loggers_LoggerStopMode_getPriority__E)
                  0000af68    00000004                         : LoggerStopMode.oem3 (.text:ti_uia_loggers_LoggerStopMode_getTransferType__E)
                  0000af6c    00000004     water_sensor_wireless_comm_pem3.oem3 (.text:xdc_runtime_System_Module_GateProxy_enter__E)
                  0000af70    00000004     water_sensor_wireless_comm_pem3.oem3 (.text:xdc_runtime_System_Module_GateProxy_leave__E)
                  0000af74    00000002     water_sensor_wireless_comm_pem3.oem3 (.text:ti_uia_loggers_LoggerStopMode_setFilterLevel__E)
                  0000af76    00000002     ti.uia.loggers.aem3 : LoggerStopMode.oem3 (.text:ti_uia_loggers_LoggerStopMode_setPriority__E)
                  0000af78    00000002     sysbios.aem3 : BIOS.obj (.text:xdc_runtime_Error_policySpin__E)
                  0000af7a    00000002                  : BIOS.obj (.text:xdc_runtime_System_abortSpin__E)
                  0000af7c    00000002                  : BIOS.obj (.text:xdc_runtime_System_exitSpin__E)

.const     0    0000af80    00003dd2     
                  0000af80    0000073c     smartrf_settings_predefined.obj (.const:patchGenookMce)
                  0000b6bc    000006b4     smartrf_settings.obj (.const:patchGenfskRfe)
                  0000bd70    000006b4     smartrf_settings_predefined.obj (.const:patchGenfskRfe)
                  0000c424    000006b4     smartrf_settings_predefined.obj (.const:patchLrmRfe)
                  0000cad8    000006a4     smartrf_settings_predefined.obj (.const:patchGenookRfe)
                  0000d17c    00000504     smartrf_settings_predefined.obj (.const:patchHsp4mbpsRfe)
                  0000d680    000003f0     smartrf_settings_predefined.obj (.const:patchHsp4mbpsMce)
                  0000da70    0000028c     smartrf_settings.obj (.const:patchImageGenfsk)
                  0000dcfc    0000028c     smartrf_settings_predefined.obj (.const:patchImageGenfsk)
                  0000df88    0000028c     smartrf_settings_predefined.obj (.const:patchImageGenook)
                  0000e214    0000028c     smartrf_settings_predefined.obj (.const:patchImageLrm)
                  0000e4a0    00000101     rtsv7M3_T_le_eabi.lib : ctype.obj (.const:.string:_ctypes_)
                  0000e5a1    00000001     smartrf_settings_predefined.obj (.const)
                  0000e5a2    00000002     water_sensor_wireless_comm_pem3.oem3 (.const:ti_sysbios_family_arm_cc26xx_TimestampProvider_useClockTimer__C)
                  0000e5a4    00000098     RF_Com.obj (.const:$P$T1$2)
                  0000e63c    00000060     water_sensor_wireless_comm_pem3.oem3 (.const:ti_uia_loggers_LoggerStopMode_Module__FXNS__C)
                  0000e69c    0000004c     CC1310DK_7XD.obj (.const:BoardGpioInitTable)
                  0000e6e8    0000004c     drivers_cc13xxware.aem3 : PowerCC26XX.oem3 (.const:resourceDB)
                  0000e734    00000048     water_sensor_wireless_comm_pem3.oem3 (.const:.string)
                  0000e77c    00000040     drivers_cc13xxware.aem3 : UARTCC26XX.oem3 (.const)
                  0000e7bc    00000040     smartrf_settings_predefined.obj (.const:rfPowerTable)
                  0000e7fc    0000003c     water_sensor_wireless_comm_pem3.oem3 (.const:ti_sysbios_knl_Task_Object__PARAMS__C)
                  0000e838    00000030     water_sensor_wireless_comm_pem3.oem3 (.const:ti_sysbios_family_arm_m3_Hwi_Object__PARAMS__C)
                  0000e868    00000028     drivers_cc13xxware.aem3 : UARTCC26XX.oem3 (.const:UARTCC26XX_fxnTable)
                  0000e890    00000028     water_sensor_wireless_comm_pem3.oem3 (.const:ti_sysbios_heaps_HeapMem_Module__FXNS__C)
                  0000e8b8    00000028     water_sensor_wireless_comm_pem3.oem3 (.const:ti_sysbios_knl_Swi_Object__PARAMS__C)
                  0000e8e0    00000028     water_sensor_wireless_comm_pem3.oem3 (.const:ti_uia_loggers_LoggerStopMode_Object__PARAMS__C)
                  0000e908    00000028     water_sensor_wireless_comm_pem3.oem3 (.const:xdc_runtime_Startup_sfxnTab__A)
                  0000e930    00000024     drivers_cc13xxware.aem3 : UART.oem3 (.const:UART_defaultParams)
                  0000e954    00000024     water_sensor_wireless_comm_pem3.oem3 (.const:ti_sysbios_gates_GateHwi_Module__FXNS__C)
                  0000e978    00000024     water_sensor_wireless_comm_pem3.oem3 (.const:ti_sysbios_gates_GateMutex_Module__FXNS__C)
                  0000e99c    00000024     water_sensor_wireless_comm_pem3.oem3 (.const:ti_sysbios_heaps_HeapMem_Object__PARAMS__C)
                  0000e9c0    00000024     water_sensor_wireless_comm_pem3.oem3 (.const:ti_sysbios_knl_Clock_Object__PARAMS__C)
                  0000e9e4    00000024     water_sensor_wireless_comm_pem3.oem3 (.const:ti_sysbios_knl_Semaphore_Object__PARAMS__C)
                  0000ea08    00000020     water_sensor_wireless_comm_pem3.oem3 (.const:ti_sysbios_family_arm_m3_Hwi_Object__DESC__C)
                  0000ea28    00000020     water_sensor_wireless_comm_pem3.oem3 (.const:ti_sysbios_gates_GateHwi_Object__DESC__C)
                  0000ea48    00000020     water_sensor_wireless_comm_pem3.oem3 (.const:ti_sysbios_gates_GateMutex_Object__DESC__C)
                  0000ea68    00000020     water_sensor_wireless_comm_pem3.oem3 (.const:ti_sysbios_heaps_HeapMem_Object__DESC__C)
                  0000ea88    00000020     water_sensor_wireless_comm_pem3.oem3 (.const:ti_sysbios_knl_Clock_Object__DESC__C)
                  0000eaa8    00000020     water_sensor_wireless_comm_pem3.oem3 (.const:ti_sysbios_knl_Queue_Object__DESC__C)
                  0000eac8    00000020     water_sensor_wireless_comm_pem3.oem3 (.const:ti_sysbios_knl_Semaphore_Object__DESC__C)
                  0000eae8    00000020     water_sensor_wireless_comm_pem3.oem3 (.const:ti_sysbios_knl_Swi_Object__DESC__C)
                  0000eb08    00000020     water_sensor_wireless_comm_pem3.oem3 (.const:ti_sysbios_knl_Task_Object__DESC__C)
                  0000eb28    00000020     water_sensor_wireless_comm_pem3.oem3 (.const:ti_uia_loggers_LoggerStopMode_Object__DESC__C)
                  0000eb48    00000020     CC1310DK_7XD.obj (.const:uartCC26XXHWAttrs)
                  0000eb68    00000018     EasyLink.obj (.const:$P$T0$3)
                  0000eb80    00000018     CC1310DK_7XD.obj (.const:UART_config)
                  0000eb98    00000018     water_sensor_wireless_comm_pem3.oem3 (.const:ti_sysbios_gates_GateHwi_Object__PARAMS__C)
                  0000ebb0    00000018     water_sensor_wireless_comm_pem3.oem3 (.const:ti_sysbios_gates_GateMutex_Object__PARAMS__C)
                  0000ebc8    00000018     water_sensor_wireless_comm_pem3.oem3 (.const:ti_sysbios_knl_Queue_Object__PARAMS__C)
                  0000ebe0    00000014     rf_singleMode_cc13xxware.aem3 : RFCC26XX_singleMode.oem3 (.const)
                  0000ebf4    00000014     water_sensor_wireless_comm_pem3.oem3 (.const:xdc_runtime_Startup_sfxnRts__A)
                  0000ec08    00000010     CC1310DK_7XD.obj (.const:PowerCC26XX_config)
                  0000ec18    0000000c     water_sensor_wireless_comm_pem3.oem3 (.const:xdc_runtime_Startup_firstFxns__A)
                  0000ec24    00000008     CC1310DK_7XD.obj (.const:PINCC26XX_hwAttrs)
                  0000ec2c    00000008     water_sensor_wireless_comm_pem3.oem3 (.const:ti_sysbios_knl_Idle_funcList__A)
                  0000ec34    00000008     water_sensor_wireless_comm_pem3.oem3 (.const:ti_sysbios_knl_Idle_funcList__C)
                  0000ec3c    00000008     water_sensor_wireless_comm_pem3.oem3 (.const:xdc_runtime_Startup_firstFxns__C)
                  0000ec44    00000008     water_sensor_wireless_comm_pem3.oem3 (.const:xdc_runtime_Startup_lastFxns__C)
                  0000ec4c    00000004     EasyLink.obj (.const:$P$T1$4)
                  0000ec50    00000004     CC1310DK_7XD.obj (.const:RFCC26XX_hwAttrs)
                  0000ec54    00000004     water_sensor_wireless_comm_pem3.oem3 (.const:ti_sysbios_family_arm_cc26xx_Timer_startupNeeded__C)
                  0000ec58    00000004     water_sensor_wireless_comm_pem3.oem3 (.const:ti_sysbios_family_arm_m3_Hwi_E_alreadyDefined__C)
                  0000ec5c    00000004     water_sensor_wireless_comm_pem3.oem3 (.const:ti_sysbios_family_arm_m3_Hwi_NUM_INTERRUPTS__C)
                  0000ec60    00000004     water_sensor_wireless_comm_pem3.oem3 (.const:ti_sysbios_family_arm_m3_Hwi_Object__count__C)
                  0000ec64    00000004     water_sensor_wireless_comm_pem3.oem3 (.const:ti_sysbios_family_arm_m3_Hwi_ccr__C)
                  0000ec68    00000004     water_sensor_wireless_comm_pem3.oem3 (.const:ti_sysbios_family_arm_m3_Hwi_excHandlerFunc__C)
                  0000ec6c    00000004     water_sensor_wireless_comm_pem3.oem3 (.const:ti_sysbios_family_arm_m3_Hwi_nullIsrFunc__C)
                  0000ec70    00000004     water_sensor_wireless_comm_pem3.oem3 (.const:ti_sysbios_family_arm_m3_Hwi_priGroup__C)
                  0000ec74    00000004     water_sensor_wireless_comm_pem3.oem3 (.const:ti_sysbios_family_arm_m3_TaskSupport_stackAlignment__C)
                  0000ec78    00000004     water_sensor_wireless_comm_pem3.oem3 (.const:ti_sysbios_gates_GateMutex_Instance_State_sem__O)
                  0000ec7c    00000004     water_sensor_wireless_comm_pem3.oem3 (.const:ti_sysbios_heaps_HeapMem_E_memory__C)
                  0000ec80    00000004     water_sensor_wireless_comm_pem3.oem3 (.const:ti_sysbios_heaps_HeapMem_Module__gateObj__C)
                  0000ec84    00000004     water_sensor_wireless_comm_pem3.oem3 (.const:ti_sysbios_heaps_HeapMem_Object__count__C)
                  0000ec88    00000004     water_sensor_wireless_comm_pem3.oem3 (.const:ti_sysbios_heaps_HeapMem_reqAlign__C)
                  0000ec8c    00000004     water_sensor_wireless_comm_pem3.oem3 (.const:ti_sysbios_knl_Clock_Module_State_clockQ__O)
                  0000ec90    00000004     water_sensor_wireless_comm_pem3.oem3 (.const:ti_sysbios_knl_Clock_tickPeriod__C)
                  0000ec94    00000004     water_sensor_wireless_comm_pem3.oem3 (.const:ti_sysbios_knl_Clock_triggerClock__C)
                  0000ec98    00000004     water_sensor_wireless_comm_pem3.oem3 (.const:ti_sysbios_knl_Semaphore_Instance_State_pendQ__O)
                  0000ec9c    00000004     water_sensor_wireless_comm_pem3.oem3 (.const:ti_sysbios_knl_Swi_Object__count__C)
                  0000eca0    00000004     water_sensor_wireless_comm_pem3.oem3 (.const:ti_sysbios_knl_Task_E_spOutOfBounds__C)
                  0000eca4    00000004     water_sensor_wireless_comm_pem3.oem3 (.const:ti_sysbios_knl_Task_E_stackOverflow__C)
                  0000eca8    00000004     water_sensor_wireless_comm_pem3.oem3 (.const:ti_sysbios_knl_Task_Module_State_inactiveQ__O)
                  0000ecac    00000004     water_sensor_wireless_comm_pem3.oem3 (.const:ti_sysbios_knl_Task_Object__count__C)
                  0000ecb0    00000004     water_sensor_wireless_comm_pem3.oem3 (.const:ti_sysbios_knl_Task_allBlockedFunc__C)
                  0000ecb4    00000004     water_sensor_wireless_comm_pem3.oem3 (.const:ti_sysbios_knl_Task_defaultStackHeap__C)
                  0000ecb8    00000004     water_sensor_wireless_comm_pem3.oem3 (.const:ti_sysbios_knl_Task_defaultStackSize__C)
                  0000ecbc    00000004     water_sensor_wireless_comm_pem3.oem3 (.const:ti_sysbios_knl_Task_numConstructedTasks__C)
                  0000ecc0    00000004     water_sensor_wireless_comm_pem3.oem3 (.const:ti_sysbios_utils_Load_postUpdate__C)
                  0000ecc4    00000004     water_sensor_wireless_comm_pem3.oem3 (.const:ti_sysbios_utils_Load_windowInMs__C)
                  0000ecc8    00000004     water_sensor_wireless_comm_pem3.oem3 (.const:ti_uia_loggers_LoggerStopMode_Module__diagsEnabled__C)
                  0000eccc    00000004     water_sensor_wireless_comm_pem3.oem3 (.const:ti_uia_loggers_LoggerStopMode_Module__diagsIncluded__C)
                  0000ecd0    00000004     water_sensor_wireless_comm_pem3.oem3 (.const:ti_uia_loggers_LoggerStopMode_Module__diagsMask__C)
                  0000ecd4    00000004     water_sensor_wireless_comm_pem3.oem3 (.const:ti_uia_loggers_LoggerStopMode_Object__count__C)
                  0000ecd8    00000004     water_sensor_wireless_comm_pem3.oem3 (.const:ti_uia_runtime_ILoggerSnapshot_Interface__BASE__C)
                  0000ecdc    00000004     water_sensor_wireless_comm_pem3.oem3 (.const:ti_uia_runtime_IUIATransfer_Interface__BASE__C)
                  0000ece0    00000004     water_sensor_wireless_comm_pem3.oem3 (.const:xdc_runtime_Assert_E_assertFailed__C)
                  0000ece4    00000004     water_sensor_wireless_comm_pem3.oem3 (.const:xdc_runtime_Error_E_memory__C)
                  0000ece8    00000004     water_sensor_wireless_comm_pem3.oem3 (.const:xdc_runtime_Error_policyFxn__C)
                  0000ecec    00000004     water_sensor_wireless_comm_pem3.oem3 (.const:xdc_runtime_IFilterLogger_Interface__BASE__C)
                  0000ecf0    00000004     water_sensor_wireless_comm_pem3.oem3 (.const:xdc_runtime_IGateProvider_Interface__BASE__C)
                  0000ecf4    00000004     water_sensor_wireless_comm_pem3.oem3 (.const:xdc_runtime_IHeap_Interface__BASE__C)
                  0000ecf8    00000004     water_sensor_wireless_comm_pem3.oem3 (.const:xdc_runtime_ILogger_Interface__BASE__C)
                  0000ecfc    00000004     water_sensor_wireless_comm_pem3.oem3 (.const:xdc_runtime_IModule_Interface__BASE__C)
                  0000ed00    00000004     water_sensor_wireless_comm_pem3.oem3 (.const:xdc_runtime_Memory_defaultHeapInstance__C)
                  0000ed04    00000004     water_sensor_wireless_comm_pem3.oem3 (.const:xdc_runtime_Startup_execImpl__C)
                  0000ed08    00000004     water_sensor_wireless_comm_pem3.oem3 (.const:xdc_runtime_Startup_maxPasses__C)
                  0000ed0c    00000004     water_sensor_wireless_comm_pem3.oem3 (.const:xdc_runtime_Startup_sfxnRts__C)
                  0000ed10    00000004     water_sensor_wireless_comm_pem3.oem3 (.const:xdc_runtime_Startup_sfxnTab__C)
                  0000ed14    00000004     water_sensor_wireless_comm_pem3.oem3 (.const:xdc_runtime_SysMin_bufSize__C)
                  0000ed18    00000004     water_sensor_wireless_comm_pem3.oem3 (.const:xdc_runtime_SysMin_outputFunc__C)
                  0000ed1c    00000004     water_sensor_wireless_comm_pem3.oem3 (.const:xdc_runtime_System_Module__gateObj__C)
                  0000ed20    00000004     water_sensor_wireless_comm_pem3.oem3 (.const:xdc_runtime_System_abortFxn__C)
                  0000ed24    00000004     water_sensor_wireless_comm_pem3.oem3 (.const:xdc_runtime_System_exitFxn__C)
                  0000ed28    00000004     water_sensor_wireless_comm_pem3.oem3 (.const:xdc_runtime_System_maxAtexitHandlers__C)
                  0000ed2c    00000004     water_sensor_wireless_comm_pem3.oem3 (.const:xdc_runtime_Text_charTab__C)
                  0000ed30    00000004     water_sensor_wireless_comm_pem3.oem3 (.const:xdc_runtime_Text_nameEmpty__C)
                  0000ed34    00000004     water_sensor_wireless_comm_pem3.oem3 (.const:xdc_runtime_Text_nameStatic__C)
                  0000ed38    00000004     water_sensor_wireless_comm_pem3.oem3 (.const:xdc_runtime_Text_nameUnknown__C)
                  0000ed3c    00000002     water_sensor_wireless_comm_pem3.oem3 (.const:ti_sysbios_family_arm_m3_Hwi_Module__id__C)
                  0000ed3e    00000002     water_sensor_wireless_comm_pem3.oem3 (.const:ti_sysbios_heaps_HeapMem_Module__id__C)
                  0000ed40    00000002     water_sensor_wireless_comm_pem3.oem3 (.const:ti_sysbios_knl_Task_Module__id__C)
                  0000ed42    00000002     water_sensor_wireless_comm_pem3.oem3 (.const:ti_sysbios_utils_Load_updateInIdle__C)
                  0000ed44    00000002     water_sensor_wireless_comm_pem3.oem3 (.const:ti_uia_loggers_LoggerStopMode_Module__id__C)
                  0000ed46    00000002     water_sensor_wireless_comm_pem3.oem3 (.const:ti_uia_loggers_LoggerStopMode_isTimestampEnabled__C)
                  0000ed48    00000002     water_sensor_wireless_comm_pem3.oem3 (.const:xdc_runtime_Memory_Module__id__C)
                  0000ed4a    00000002     water_sensor_wireless_comm_pem3.oem3 (.const:xdc_runtime_SysMin_flushAtExit__C)
                  0000ed4c    00000002     water_sensor_wireless_comm_pem3.oem3 (.const:xdc_runtime_Text_charCnt__C)
                  0000ed4e    00000002     water_sensor_wireless_comm_pem3.oem3 (.const:xdc_runtime_Text_isLoaded__C)
                  0000ed50    00000001     water_sensor_wireless_comm_pem3.oem3 (.const:xdc_runtime_Error_policy__C)
                  0000ed51    00000001     water_sensor_wireless_comm_pem3.oem3 (.const:xdc_runtime_Text_charTab__A)

.cinit     0    0000ed58    00000410     
                  0000ed58    000003e9     (.cinit..data.load) [load image, compression = lzss]
                  0000f141    00000003     --HOLE-- [fill = 0]
                  0000f144    0000000c     (__TI_handler_table)
                  0000f150    00000008     (.cinit..bss.load) [load image, compression = zero_init]
                  0000f158    00000010     (__TI_cinit_table)

.init_array 
*          0    00000000    00000000     UNINITIALIZED

.ccfg      0    0001ffa8    00000058     
                  0001ffa8    00000058     ccfg.obj (.ccfg:retain)

.bss       0    20000100    00002871     UNINITIALIZED
                  20000100    00000800     main.obj (.bss:taskStack)
                  20000900    00000800     water_sensor_wireless_comm_pem3.oem3 (.bss:taskStackSection)
                  20001100    00000400     (.common:ti_sysbios_heaps_HeapMem_Instance_State_0_buf__A)
                  20001500    00000400     (.common:ti_uia_loggers_LoggerStopMode_Instance_State_1_packetArray__A)
                  20001900    00000400     (.common:ti_uia_loggers_LoggerStopMode_Instance_State_2_packetArray__A)
                  20001d00    00000200     (.common:ti_uia_loggers_LoggerStopMode_Instance_State_0_packetArray__A)
                  20001f00    0000012c     (.common:uartCC26XXObjects)
                  2000202c    00000120     rtsv7M3_T_le_eabi.lib : trgmsg.obj (.bss:_CIOBUF_)
                  2000214c    00000004     ToServer_Com.obj (.bss)
                  20002150    00000100     rf_singleMode_cc13xxware.aem3 : RFCC26XX_singleMode.oem3 (.bss:aCmdPool)
                  20002250    000000c8     (.common:ti_sysbios_family_arm_m3_Hwi_dispatchTable)
                  20002318    000000c0     EasyLink.obj (.bss:rfObject)
                  200023d8    000000a0     (.common:__TI_tmpnams)
                  20002478    00000098     EasyLink.obj (.bss:rxBuffer)
                  20002510    00000080     (.common:xdc_runtime_SysMin_Module_State_0_outbuf__A)
                  20002590    0000007c     drivers_cc13xxware.aem3 : PINCC26XX.oem3 (.bss:PIN_HandleTable)
                  2000260c    00000034                             : PINCC26XX.oem3 (.bss:PinSwi)
                  20002640    00000034     rf_singleMode_cc13xxware.aem3 : RFCC26XX_singleMode.oem3 (.bss:swiFsm)
                  20002674    00000034                                   : RFCC26XX_singleMode.oem3 (.bss:swiHw)
                  200026a8    00000030     EasyLink.obj (.bss:EasyLink_cmdPropRxAdv)
                  200026d8    00000028     EasyLink.obj (.bss:EasyLink_cmdPropRadioSetup)
                  20002700    00000030     (.common:ti_uia_loggers_LoggerStopMode_Instance_State_0_hdr__A)
                  20002730    00000024     rf_singleMode_cc13xxware.aem3 : RFCC26XX_singleMode.oem3 (.bss:clkPowerUp)
                  20002754    00000020     (.common:PinGpioConfigTable)
                  20002774    0000000c     EasyLink.obj (.bss:rxStatistics)
                  20002780    00000030     (.common:ti_uia_loggers_LoggerStopMode_Instance_State_1_hdr__A)
                  200027b0    00000020     (.common:uartCC26XXRingBuffer)
                  200027d0    0000001c     (.common:PinHwi)
                  200027ec    00000014     driverlib.lib : osc.obj (.bss:oscHfGlobals)
                  20002800    00000030     (.common:ti_uia_loggers_LoggerStopMode_Instance_State_2_hdr__A)
                  20002830    0000001c     (.common:PinSem)
                  2000284c    0000001c     (.common:hwiCpe0)
                  20002868    0000001c     (.common:hwiHw)
                  20002884    00000018     EasyLink.obj (.bss:EasyLink_cmdFs)
                  2000289c    00000018     EasyLink.obj (.bss:EasyLink_cmdPropTx)
                  200028b4    00000018     (.common:cmdDirImm)
                  200028cc    00000014     EasyLink.obj (.bss:rfParams)
                  200028e0    00000014     (.common:cmdQ)
                  200028f4    00000014     (.common:opRatSync)
                  20002908    00000010     EasyLink.obj (.bss)
                  20002918    00000010     EasyLink.obj (.bss:EasyLink_RF_prop)
                  20002928    00000008     EasyLink.obj (.bss:dataQueue)
                  20002930    00000008     rtsv7M3_T_le_eabi.lib : trgdrv.obj (.bss:parmbuf)
                  20002938    00000008     driverlib.lib : sys_ctrl.obj (.bss:powerQualGlobals)
                  20002940    00000004     (.common:PIN_NumPins)
                  20002944    00000004     (.common:activeTimeInUs)
                  20002948    00000004     (.common:dispatchInUs)
                  2000294c    00000004     (.common:nRtc1)
                  20002950    00000004     (.common:nRtc3)
                  20002954    00000004     (.common:pCurrClient)
                  20002958    00000004     (.common:pFsmState)
                  2000295c    00000004     (.common:pPinGpio)
                  20002960    00000004     (.common:taskHandle)
                  20002964    00000001     (.common:bInitAvailRatCh)
                  20002965    00000001     (.common:bPowerDownActive)
                  20002966    00000001     (.common:bPowerUpActive)
                  20002967    00000001     (.common:bRadioActive)
                  20002968    00000001     (.common:bRestart)
                  20002969    00000001     (.common:bStart)
                  2000296a    00000001     (.common:bYieldPwrDnCalled)
                  2000296b    00000001     (.common:bYieldPwrDnCancel)
                  2000296c    00000001     (.common:driverlib_release_0_47020)
                  2000296d    00000001     (.common:nActiveClients)
                  2000296e    00000001     (.common:nClients)
                  2000296f    00000001     (.common:uartRxPowerConstraint)
                  20002970    00000001     (.common:uartTxPowerConstraint)

.data      0    20002978    00000be2     UNINITIALIZED
                  20002978    00000110     drivers_cc13xxware.aem3 : PowerCC26XX.oem3 (.data:PowerCC26XX_module)
                  20002a88    000000f0     rtsv7M3_T_le_eabi.lib : defs.obj (.data:_ftable)
                  20002b78    000000d0                           : lowlev.obj (.data:$O1$$)
                  20002c48    0000009c     water_sensor_wireless_comm_pem3.oem3 (.data:ti_uia_loggers_LoggerStopMode_Object__table__V)
                  20002ce4    00000098     water_sensor_wireless_comm_pem3.oem3 (.data:ti_sysbios_utils_Load_Module__state__V)
                  20002d7c    00000080     water_sensor_wireless_comm_pem3.oem3 (.data:ti_sysbios_knl_Task_Module_State_0_readyQ__A)
                  20002dfc    00000060     smartrf_settings_predefined.obj (.data:pOverrides_hsm)
                  20002e5c    0000005c     smartrf_settings_predefined.obj (.data:pOverrides_lrm)
                  20002eb8    0000005c     smartrf_settings_predefined.obj (.data:pOverrides_ook)
                  20002f14    00000058     smartrf_settings.obj (.data:pOverrides)
                  20002f6c    00000058     smartrf_settings_predefined.obj (.data:pOverrides_fsk)
                  20002fc4    0000004c     water_sensor_wireless_comm_pem3.oem3 (.data:ti_sysbios_knl_Task_Object__table__V)
                  20003010    00000048     water_sensor_wireless_comm_pem3.oem3 (.data:ti_sysbios_family_arm_cc26xx_Timer_Object__table__V)
                  20003058    00000044     water_sensor_wireless_comm_pem3.oem3 (.data:ti_sysbios_knl_Task_Module__state__V)
                  2000309c    0000003c     smartrf_settings_predefined.obj (.data)
                  200030d8    00000038     water_sensor_wireless_comm_pem3.oem3 (.data:ti_sysbios_gates_GateMutex_Object__table__V)
                  20003110    00000034     water_sensor_wireless_comm_pem3.oem3 (.data:ti_sysbios_family_arm_m3_Hwi_Module__state__V)
                  20003144    00000030     smartrf_settings_predefined.obj (.data:RF_cmdPropRxAdv_preDef)
                  20003174    00000030     water_sensor_wireless_comm_pem3.oem3 (.data:ti_sysbios_knl_Swi_Module_State_0_readyQ__A)
                  200031a4    00000030     water_sensor_wireless_comm_pem3.oem3 (.data:ti_sysbios_knl_Swi_Object__table__V)
                  200031d4    0000002c     water_sensor_wireless_comm_pem3.oem3 (.data:ti_sysbios_knl_Clock_Module__state__V)
                  20003200    00000028     smartrf_settings.obj (.data:RF_cmdPropRadioDivSetup)
                  20003228    00000028     smartrf_settings_predefined.obj (.data:RF_cmdPropRadioDivSetup_fsk)
                  20003250    00000028     smartrf_settings_predefined.obj (.data:RF_cmdPropRadioDivSetup_lrm)
                  20003278    00000028     smartrf_settings_predefined.obj (.data:RF_cmdPropRadioDivSetup_ook)
                  200032a0    00000024     smartrf_settings_predefined.obj (.data:RF_cmdRxHS)
                  200032c4    00000024     water_sensor_wireless_comm_pem3.oem3 (.data:ti_sysbios_BIOS_Module__state__V)
                  200032e8    00000020     water_sensor_wireless_comm_pem3.oem3 (.data:ti_sysbios_knl_Clock_Object__table__V)
                  20003308    0000001c     water_sensor_wireless_comm_pem3.oem3 (.data:ti_sysbios_knl_Swi_Module__state__V)
                  20003324    00000018     smartrf_settings.obj (.data:RF_cmdFs)
                  2000333c    00000018     smartrf_settings_predefined.obj (.data:RF_cmdFs_preDef)
                  20003354    00000018     smartrf_settings.obj (.data:RF_cmdPropTx)
                  2000336c    00000018     smartrf_settings_predefined.obj (.data:RF_cmdPropTx_preDef)
                  20003384    00000018     smartrf_settings_predefined.obj (.data:RF_cmdRadioSetup_hsm)
                  2000339c    00000018     EasyLink.obj (.data:addrFilterTable)
                  200033b4    00000018     smartrf_settings_predefined.obj (.data:shapeovr)
                  200033cc    00000018     water_sensor_wireless_comm_pem3.oem3 (.data:ti_sysbios_family_arm_m3_Hwi_Object__table__V)
                  200033e4    00000018     water_sensor_wireless_comm_pem3.oem3 (.data:ti_sysbios_heaps_HeapMem_Object__table__V)
                  200033fc    00000014     smartrf_settings_predefined.obj (.data:RF_cmdTxHS)
                  20003410    00000010     smartrf_settings.obj (.data:RF_prop)
                  20003420    00000010     smartrf_settings_predefined.obj (.data:RF_prop_fsk)
                  20003430    00000010     smartrf_settings_predefined.obj (.data:RF_prop_hsm)
                  20003440    00000010     smartrf_settings_predefined.obj (.data:RF_prop_lrm)
                  20003450    00000010     smartrf_settings_predefined.obj (.data:RF_prop_ook)
                  20003460    00000010     rtsv7M3_T_le_eabi.lib : defs.obj (.data)
                  20003470    0000000e     EasyLink.obj (.data)
                  2000347e    00000002     rf_singleMode_cc13xxware.aem3 : RFCC26XX_singleMode.oem3 (.data)
                  20003480    0000000c     rtsv7M3_T_le_eabi.lib : exit.obj (.data:$O1$$)
                  2000348c    0000000c     water_sensor_wireless_comm_pem3.oem3 (.data:ti_sysbios_knl_Task_Module__root__V)
                  20003498    0000000c     water_sensor_wireless_comm_pem3.oem3 (.data:ti_uia_runtime_QueueDescriptor_Module__state__V)
                  200034a4    0000000c     water_sensor_wireless_comm_pem3.oem3 (.data:xdc_runtime_SysMin_Module__state__V)
                  200034b0    00000008     rtsv7M3_T_le_eabi.lib : _lock.obj (.data:$O1$$)
                  200034b8    00000008     ti.uia.runtime.aem3 : QueueDescriptor.oem3 (.data)
                  200034c0    00000008     water_sensor_wireless_comm_pem3.oem3 (.data:ti_sysbios_family_arm_cc26xx_Timer_Module__state__V)
                  200034c8    00000008     water_sensor_wireless_comm_pem3.oem3 (.data:ti_sysbios_family_arm_m3_Hwi_Module__root__V)
                  200034d0    00000008     water_sensor_wireless_comm_pem3.oem3 (.data:ti_sysbios_gates_GateHwi_Module__root__V)
                  200034d8    00000008     water_sensor_wireless_comm_pem3.oem3 (.data:ti_sysbios_gates_GateMutex_Module__root__V)
                  200034e0    00000008     water_sensor_wireless_comm_pem3.oem3 (.data:ti_sysbios_heaps_HeapMem_Module__root__V)
                  200034e8    00000008     water_sensor_wireless_comm_pem3.oem3 (.data:ti_sysbios_knl_Clock_Module__root__V)
                  200034f0    00000008     water_sensor_wireless_comm_pem3.oem3 (.data:ti_sysbios_knl_Queue_Module__root__V)
                  200034f8    00000008     water_sensor_wireless_comm_pem3.oem3 (.data:ti_sysbios_knl_Semaphore_Module__root__V)
                  20003500    00000008     water_sensor_wireless_comm_pem3.oem3 (.data:ti_sysbios_knl_Swi_Module__root__V)
                  20003508    00000008     water_sensor_wireless_comm_pem3.oem3 (.data:ti_uia_loggers_LoggerStopMode_Module__root__V)
                  20003510    00000008     water_sensor_wireless_comm_pem3.oem3 (.data:xdc_runtime_Startup_Module__state__V)
                  20003518    00000008     water_sensor_wireless_comm_pem3.oem3 (.data:xdc_runtime_System_Module_State_0_atexitHandlers__A)
                  20003520    00000008     water_sensor_wireless_comm_pem3.oem3 (.data:xdc_runtime_System_Module__state__V)
                  20003528    00000004     drivers_cc13xxware.aem3 : UART.oem3 (.data)
                  2000352c    00000004     rtsv7M3_T_le_eabi.lib : errno.obj (.data)
                  20003530    00000004                           : fopen.obj (.data)
                  20003534    00000004                           : stkdepth_vars.obj (.data)
                  20003538    00000004     water_sensor_wireless_comm_pem3.oem3 (.data:ti_sysbios_family_arm_cc26xx_TimestampProvider_Module__state__V)
                  2000353c    00000004     water_sensor_wireless_comm_pem3.oem3 (.data:ti_sysbios_family_arm_m3_Hwi_Module_State_0_excContext__A)
                  20003540    00000004     water_sensor_wireless_comm_pem3.oem3 (.data:ti_sysbios_family_arm_m3_Hwi_Module_State_0_excStack__A)
                  20003544    00000004     water_sensor_wireless_comm_pem3.oem3 (.data:ti_sysbios_gates_GateHwi_Object__table__V)
                  20003548    00000004     water_sensor_wireless_comm_pem3.oem3 (.data:ti_sysbios_knl_Task_Module_State_0_idleTask__A)
                  2000354c    00000004     water_sensor_wireless_comm_pem3.oem3 (.data:ti_sysbios_utils_Load_Module_State_0_runningTask__A)
                  20003550    00000004     water_sensor_wireless_comm_pem3.oem3 (.data:ti_sysbios_utils_Load_Module_State_0_taskStartTime__A)
                  20003554    00000004     water_sensor_wireless_comm_pem3.oem3 (.data:xdc_runtime_Memory_Module__state__V)
                  20003558    00000002     water_sensor_wireless_comm_pem3.oem3 (.data:ti_sysbios_family_arm_m3_Hwi_Module_State_0_excActive__A)

.stack     0    20004d00    00000300     UNINITIALIZED
                  20004d00    00000300     --HOLE--

.bootVecs 
*          0    00000000    00000008     DSECT
                  00000000    00000008     boot.aem3 : boot.oem3 (.bootVecs)

.resetVecs 
*          0    00000000    0000003c     
                  00000000    0000003c     water_sensor_wireless_comm_pem3.oem3 (.resetVecs)

.vecs      0    20000000    000000c8     NOLOAD SECTION
                  20000000    000000c8     water_sensor_wireless_comm_pem3.oem3 (.vecs)

xdc.meta   0    00000000    00000113     COPY SECTION
                  00000000    00000113     water_sensor_wireless_comm_pem3.oem3 (xdc.meta)

xdc.noload 
*          0    00000000    00000000     COPY SECTION

.binit     0    00000000    00000000     

MODULE SUMMARY

       Module                                 code    ro data   rw data
       ------                                 ----    -------   -------
    ./
       main.obj                               186     0         2052   
       CC1310DK_7XD.obj                       0       160       332    
       RF_Com.obj                             88      152       0      
       ToServer_Com.obj                       120     0         4      
       ccfg.obj                               0       88        0      
       receptor.obj                           48      0         0      
    +--+--------------------------------------+-------+---------+---------+
       Total:                                 442     400       2388   
                                                                       
    ./easylink/
       EasyLink.obj                           1882    28        590    
    +--+--------------------------------------+-------+---------+---------+
       Total:                                 1882    28        590    
                                                                       
    ./smartrf_settings/
       smartrf_settings_predefined.obj        2074    11297     812    
       smartrf_settings.obj                   442     2368      192    
    +--+--------------------------------------+-------+---------+---------+
       Total:                                 2516    13665     1004   
                                                                       
    /media/DATA/Docs/programas/water_sensor/water_sensor_wireless_comm/Debug/configPkg/package/cfg/
       water_sensor_wireless_comm_pem3.oem3   3220    1388      7522   
    +--+--------------------------------------+-------+---------+---------+
       Total:                                 3220    1388      7522   
                                                                       
    /home/clx/Software/ti/ccsv7/tools/compiler/ti-cgt-arm_16.9.1.LTS/lib/rtsv7M3_T_le_eabi.lib
       _printfi.obj                           4354    0         0      
       lowlev.obj                             780     0         208    
       trgdrv.obj                             804     0         8      
       ull_div_t2.obj                         500     0         0      
       fopen.obj                              452     0         4      
       fd_add_t2.obj                          438     0         0      
       defs.obj                               0       0         416    
       trgmsg.obj                             104     0         288    
       fd_div_t2.obj                          310     0         0      
       fputs.obj                              308     0         0      
       fd_cmp_t2.obj                          268     0         0      
       ctype.obj                              0       257       0      
       fd_mul_t2.obj                          252     0         0      
       setvbuf.obj                            220     0         0      
       s_scalbn.obj                           208     0         0      
       fflush.obj                             200     0         0      
       _io_perm.obj                           172     0         0      
       memcpy_t2.obj                          156     0         0      
       fclose.obj                             152     0         0      
       fputc.obj                              152     0         0      
       memset_t2.obj                          122     0         0      
       printf.obj                             112     0         0      
       copy_decompress_lzss.obj               104     0         0      
       fseek.obj                              100     0         0      
       s_frexp.obj                            92      0         0      
       ltoa.obj                               84      0         0      
       atoi.obj                               76      0         0      
       cpy_tbl.obj                            76      0         0      
       fd_toi_t2.obj                          72      0         0      
       strncpy.obj                            54      0         0      
       i_tofd_t2.obj                          46      0         0      
       memchr.obj                             32      0         0      
       _lock.obj                              20      0         8      
       memccpy.obj                            26      0         0      
       args_main.obj                          24      0         0      
       ll_mul_t2.obj                          24      0         0      
       strcmp.obj                             24      0         0      
       strchr.obj                             22      0         0      
       strcpy.obj                             22      0         0      
       strlen.obj                             20      0         0      
       copy_decompress_none.obj               14      0         0      
       copy_zero_init.obj                     12      0         0      
       exit.obj                               0       0         12     
       s_copysign.obj                         8       0         0      
       errno.obj                              0       0         4      
       stkdepth_vars.obj                      0       0         4      
    +--+--------------------------------------+-------+---------+---------+
       Total:                                 11016   257       952    
                                                                       
    /home/clx/ti/tirtos_cc13xx_cc26xx_2_21_00_06/products/bios_6_46_01_37/packages/ti/targets/arm/rtsarm/lib/auto_init.aem3
       auto_init.oem3                         160     0         0      
    +--+--------------------------------------+-------+---------+---------+
       Total:                                 160     0         0      
                                                                       
    /home/clx/ti/tirtos_cc13xx_cc26xx_2_21_00_06/products/bios_6_46_01_37/packages/ti/targets/arm/rtsarm/lib/boot.aem3
       boot.oem3                              68      0         0      
    +--+--------------------------------------+-------+---------+---------+
       Total:                                 68      0         0      
                                                                       
    /home/clx/ti/tirtos_cc13xx_cc26xx_2_21_00_06/products/cc13xxware_2_04_03_17272/driverlib/bin/ccs/driverlib.lib
       setup_rom.obj                          1472    0         0      
       sys_ctrl.obj                           748     0         8      
       rfc.obj                                592     0         0      
       osc.obj                                376     0         20     
       setup.obj                              360     0         0      
       chipinfo.obj                           278     0         0      
       aon_rtc.obj                            44      0         0      
       ddi.obj                                44      0         0      
       adi.obj                                40      0         0      
       aon_batmon.obj                         40      0         0      
       cpu.obj                                24      0         0      
       vims.obj                               14      0         0      
       driverlib_release.obj                  0       0         1      
    +--+--------------------------------------+-------+---------+---------+
       Total:                                 4032    0         29     
                                                                       
    /home/clx/ti/tirtos_cc13xx_cc26xx_2_21_00_06/products/tidrivers_cc13xx_cc26xx_2_21_00_04/packages/ti/drivers/lib/drivers_cc13xxware.aem3
       UARTCC26XX.oem3                        2664    104       2      
       PowerCC26XX.oem3                       2096    76        272    
       PINCC26XX.oem3                         1338    0         272    
       PowerCC26XX_calibrateRCOSC.oem3        1476    0         0      
       UART.oem3                              138     36        4      
       RingBuf.oem3                           152     0         0      
       List.oem3                              82      0         0      
    +--+--------------------------------------+-------+---------+---------+
       Total:                                 7946    216       550    
                                                                       
    /home/clx/ti/tirtos_cc13xx_cc26xx_2_21_00_06/products/tidrivers_cc13xx_cc26xx_2_21_00_04/packages/ti/drivers/lib/power_cc13xx_tirtos.aem3
       PowerCC26XX_tirtos.oem3                212     0         0      
    +--+--------------------------------------+-------+---------+---------+
       Total:                                 212     0         0      
                                                                       
    /home/clx/ti/tirtos_cc13xx_cc26xx_2_21_00_06/products/tidrivers_cc13xx_cc26xx_2_21_00_04/packages/ti/drivers/ports/lib/tirtosport.aem3
       HwiP_tirtos.oem3                       4       0         0      
    +--+--------------------------------------+-------+---------+---------+
       Total:                                 4       0         0      
                                                                       
    /home/clx/ti/tirtos_cc13xx_cc26xx_2_21_00_06/products/tidrivers_cc13xx_cc26xx_2_21_00_04/packages/ti/drivers/rf/lib/rf_singleMode_cc13xxware.aem3
       RFCC26XX_singleMode.oem3               4610    20        552    
    +--+--------------------------------------+-------+---------+---------+
       Total:                                 4610    20        552    
                                                                       
    /home/clx/ti/tirtos_cc13xx_cc26xx_2_21_00_06/products/uia_2_01_00_01/packages/ti/uia/loggers/lib/release/ti.uia.loggers.aem3
       LoggerStopMode.oem3                    552     0         0      
    +--+--------------------------------------+-------+---------+---------+
       Total:                                 552     0         0      
                                                                       
    /home/clx/ti/tirtos_cc13xx_cc26xx_2_21_00_06/products/uia_2_01_00_01/packages/ti/uia/runtime/lib/release/ti.uia.runtime.aem3
       QueueDescriptor.oem3                   116     0         8      
    +--+--------------------------------------+-------+---------+---------+
       Total:                                 116     0         8      
                                                                       
    /media/DATA/Docs/programas/water_sensor/water_sensor_wireless_comm/src/sysbios/sysbios.aem3
       BIOS.obj                               7622    0         0      
       m3_Hwi_asm.obj                         258     0         0      
       m3_TaskSupport_asm.obj                 108     0         0      
       m3_Hwi_asm_switch.obj                  102     0         0      
    +--+--------------------------------------+-------+---------+---------+
       Total:                                 8090    0         0      
                                                                       
       Stack:                                 0       0         768    
       Linker Generated:                      0       1037      0      
    +--+--------------------------------------+-------+---------+---------+
       Grand Total:                           44866   17011     14363  


LINKER GENERATED COPY TABLES

__TI_cinit_table @ 0000f158 records: 2, size/record: 8, table size: 16
	.data: load addr=0000ed58, load size=000003e9 bytes, run addr=20002978, run size=00000be2 bytes, compression=lzss
	.bss: load addr=0000f150, load size=00000008 bytes, run addr=20000100, run size=00002871 bytes, compression=zero_init


LINKER GENERATED HANDLER TABLE

__TI_handler_table @ 0000f144 records: 3, size/record: 4, table size: 12
	index: 0, handler: __TI_decompress_lzss
	index: 1, handler: __TI_decompress_none
	index: 2, handler: __TI_zero_init


GLOBAL SYMBOLS: SORTED ALPHABETICALLY BY Name 

address   name                                                            
-------   ----                                                            
0000e69c  BoardGpioInitTable                                              
00007837  C$$IO$$                                                         
000014f9  EasyLink_init                                                   
00001e71  EasyLink_receive                                                
00003015  EasyLink_setRfPwr                                               
00001b1b  HOSTclock                                                       
00001ae3  HOSTclose                                                       
00001aa5  HOSTgetenv                                                      
00001a49  HOSTlseek                                                       
000019f7  HOSTopen                                                        
000019ab  HOSTread                                                        
0000194d  HOSTrename                                                      
00001913  HOSTtime                                                        
000018c5  HOSTtime64                                                      
0000188d  HOSTunlink                                                      
00001841  HOSTwrite                                                       
0000aee5  HwiP_disable                                                    
0000aeb5  HwiP_restore                                                    
0000ae25  List_empty                                                      
0000aee9  List_head                                                       
0000aeed  List_next                                                       
00009dd9  List_put                                                        
0000a579  List_remove                                                     
00009ce9  NOROM_AONBatMonTemperatureGetDegC                               
0000a9d5  NOROM_AONRTCCurrent64BitValueGet                                
0000a5c9  NOROM_AONRTCCurrentCompareValueGet                              
0000ace1  NOROM_CPUcpsid                                                  
0000aced  NOROM_CPUcpsie                                                  
000089d9  NOROM_ChipInfo_GetChipFamily                                    
0000968d  NOROM_ChipInfo_GetChipType                                      
000073d9  NOROM_ChipInfo_GetHwRevision                                    
0000a5e1  NOROM_ChipInfo_GetPackageType                                   
00009b05  NOROM_DDI32RegWrite                                             
00009b31  NOROM_OSCClockSourceGet                                         
00007c65  NOROM_OSCClockSourceSet                                         
00007a0d  NOROM_OSCHF_AttemptToSwitchToXosc                               
000093b5  NOROM_OSCHF_SwitchToRcOscTurnOffXosc                            
0000a5f9  NOROM_OSCHF_TurnOnXosc                                          
00009025  NOROM_OSC_HPOSCRelativeFrequencyOffsetGet                       
00009ff5  NOROM_RFCAdi3VcoLdoVoltageMode                                  
0000a611  NOROM_RFCCpeIntGetAndClear                                      
0000a015  NOROM_RFCDoorbellSendTo                                         
0000511d  NOROM_RFCRTrim                                                  
0000547d  NOROM_RFCRfTrimRead                                             
0000aad1  NOROM_RFCRfTrimSet                                              
00009061  NOROM_RFCSynthPowerDown                                         
000060e1  NOROM_SetupAfterColdResetWakeupFromShutDownCfg1                 
00004ca1  NOROM_SetupAfterColdResetWakeupFromShutDownCfg2                 
00003b55  NOROM_SetupAfterColdResetWakeupFromShutDownCfg3                 
0000a629  NOROM_SetupGetTrimForAdcShModeEn                                
0000a641  NOROM_SetupGetTrimForAdcShVbufEn                                
000074b9  NOROM_SetupGetTrimForAmpcompCtrl                                
0000a659  NOROM_SetupGetTrimForAmpcompTh1                                 
0000a311  NOROM_SetupGetTrimForAmpcompTh2                                 
00007669  NOROM_SetupGetTrimForAnabypassValue1                            
0000a671  NOROM_SetupGetTrimForDblrLoopFilterResetVoltage                 
00009b5d  NOROM_SetupGetTrimForRadcExtCfg                                 
0000a689  NOROM_SetupGetTrimForRcOscLfIBiasTrim                           
0000a32d  NOROM_SetupGetTrimForRcOscLfRtuneCtuneTrim                      
0000a035  NOROM_SetupGetTrimForXoscHfCtl                                  
0000aae1  NOROM_SetupGetTrimForXoscHfFastStart                            
0000aaf1  NOROM_SetupGetTrimForXoscHfIbiastherm                           
0000a6a1  NOROM_SetupGetTrimForXoscLfRegulatorAndCmirrwrRatio             
000096bd  NOROM_SetupSetAonRtcSubSecInc                                   
00008635  NOROM_SetupSetCacheModeAccordingToCcfgSetting                   
00007039  NOROM_SetupSetVddrLevel                                         
00006039  NOROM_SetupTrimDevice                                           
00007e45  NOROM_SysCtrlAdjustRechargeAfterPowerDown                       
000020c9  NOROM_SysCtrlSetRechargeBeforePowerDown                         
000076d1  NOROM_SysCtrl_DCDC_VoltageConditionalControl                    
0000a8f9  NOROM_ThisCodeIsBuiltForCC13xxHwRev20AndLater_HaltIfViolated    
0000ac71  NOROM_VIMSModeGet                                               
00009e01  PINCC26XX_getPinCount                                           
0000ec24  PINCC26XX_hwAttrs                                               
00009b89  PINCC26XX_setMux                                                
20002590  PIN_HandleTable                                                 
20002940  PIN_NumPins                                                     
0000a2b5  PIN_close                                                       
00002ad5  PIN_init                                                        
00006521  PIN_open                                                        
00007ea1  PIN_remove                                                      
000093e9  PIN_setConfig                                                   
00008a21  PIN_setOutputEnable                                             
0000909d  PIN_setOutputValue                                              
00007cc5  PowerCC26XX_RCOSC_clockFunc                                     
000070ad  PowerCC26XX_auxISR                                              
00007525  PowerCC26XX_calibrate                                           
0000ec08  PowerCC26XX_config                                              
000031b9  PowerCC26XX_doCalibrate                                         
00008181  PowerCC26XX_initiateCalibration                                 
20002978  PowerCC26XX_module                                              
00005551  PowerCC26XX_standbyPolicy                                       
0000acf9  Power_getConstraintMask                                         
0000ad05  Power_getDependencyCount                                        
0000a2d3  Power_getTransitionLatency                                      
0000a6b9  Power_idleFunc                                                  
00003c85  Power_init                                                      
00009d11  Power_registerNotify                                            
000096ed  Power_releaseConstraint                                         
00005625  Power_releaseDependency                                         
0000971d  Power_setConstraint                                             
000056f9  Power_setDependency                                             
000022f1  Power_sleep                                                     
0000a055  Power_unregisterNotify                                          
0000ec50  RFCC26XX_hwAttrs                                                
0000ab01  RFCom_init                                                      
00008ab1  RFCom_receivePacket                                             
0000a9e9  RF_Params_init                                                  
000047b5  RF_close                                                        
20003324  RF_cmdFs                                                        
2000333c  RF_cmdFs_preDef                                                 
20003200  RF_cmdPropRadioDivSetup                                         
20003228  RF_cmdPropRadioDivSetup_fsk                                     
20003250  RF_cmdPropRadioDivSetup_lrm                                     
20003278  RF_cmdPropRadioDivSetup_ook                                     
20003144  RF_cmdPropRxAdv_preDef                                          
20003354  RF_cmdPropTx                                                    
2000336c  RF_cmdPropTx_preDef                                             
20003384  RF_cmdRadioSetup_hsm                                            
200032a0  RF_cmdRxHS                                                      
200033fc  RF_cmdTxHS                                                      
00007739  RF_getCurrentTime                                               
00005899  RF_open                                                         
200030cc  RF_pCmdFs_preDef                                                
200030b0  RF_pCmdPropRadioDivSetup_fsk                                    
200030b4  RF_pCmdPropRadioDivSetup_lrm                                    
200030b8  RF_pCmdPropRadioDivSetup_ook                                    
200030c0  RF_pCmdPropRadioSetup_2_4G_fsk                                  
200030d4  RF_pCmdPropRxAdv_preDef                                         
200030d0  RF_pCmdPropTx_preDef                                            
200030bc  RF_pCmdRadioSetup_hsm                                           
200030c8  RF_pCmdRxHS                                                     
200030c4  RF_pCmdTxHS                                                     
200030ac  RF_pProp_2_4G_fsk                                               
2000309c  RF_pProp_fsk                                                    
200030a8  RF_pProp_hsm                                                    
200030a0  RF_pProp_lrm                                                    
200030a4  RF_pProp_ook                                                    
00006c4d  RF_pendCmd                                                      
000028f9  RF_postCmd                                                      
20003410  RF_prop                                                         
20003420  RF_prop_fsk                                                     
20003430  RF_prop_hsm                                                     
20003440  RF_prop_lrm                                                     
20003450  RF_prop_ook                                                     
00008af9  RF_runCmd                                                       
00008dc9  ResetISR                                                        
0000aa89  RingBuf_construct                                               
00008fa5  RingBuf_get                                                     
00008d81  RingBuf_put                                                     
UNDEFED   SHT$$INIT_ARRAY$$Base                                           
UNDEFED   SHT$$INIT_ARRAY$$Limit                                          
00009d61  SafeHapiVoid                                                    
000087c5  ToServerCom_init                                                
00009bb5  ToServerCom_write                                               
00006f49  UARTCC26XX_close                                                
00007a71  UARTCC26XX_control                                              
0000e868  UARTCC26XX_fxnTable                                             
00004599  UARTCC26XX_hwiIntFxn                                            
0000a6e9  UARTCC26XX_init                                                 
00003359  UARTCC26XX_open                                                 
00004251  UARTCC26XX_read                                                 
00007591  UARTCC26XX_readCancel                                           
0000ae9d  UARTCC26XX_readPolling                                          
000090d9  UARTCC26XX_swiIntFxn                                            
000048bd  UARTCC26XX_write                                                
0000691d  UARTCC26XX_writeCancel                                          
0000aea3  UARTCC26XX_writePolling                                         
0000a701  UART_Params_init                                                
0000eb80  UART_config                                                     
0000e930  UART_defaultParams                                              
00009151  UART_init                                                       
0000974d  UART_open                                                       
0000ae2f  UART_write                                                      
00000000  __ASM__                                                         
2000202c  __CIOBUF_                                                       
0000008d  __ISA__                                                         
0000009f  __PLAT__                                                        
20005000  __STACK_END                                                     
00000300  __STACK_SIZE                                                    
000000c6  __TARG__                                                        
0000f158  __TI_CINIT_Base                                                 
0000f168  __TI_CINIT_Limit                                                
0000f144  __TI_Handler_Table_Base                                         
0000f150  __TI_Handler_Table_Limit                                        
00006185  __TI_auto_init                                                  
00002d61  __TI_cleanup                                                    
20003480  __TI_cleanup_ptr                                                
00006359  __TI_closefile                                                  
000077a1  __TI_decompress_lzss                                            
0000ac7f  __TI_decompress_none                                            
00005bc5  __TI_doflush                                                    
20003484  __TI_dtors_ptr                                                  
20003488  __TI_enable_exit_profile_output                                 
20003460  __TI_ft_end                                                     
ffffffff  __TI_pprof_out_hndl                                             
00000869  __TI_printfi                                                    
ffffffff  __TI_prof_data_size                                             
ffffffff  __TI_prof_data_start                                            
00005fef  __TI_rd_ok                                                      
0000783b  __TI_readmsg                                                    
0000ed58  __TI_static_base__                                              
200023d8  __TI_tmpnams                                                    
00007809  __TI_writemsg                                                   
00005f8d  __TI_wrt_ok                                                     
0000ad11  __TI_zero_init                                                  
000000eb  __TRDR__                                                        
00006abd  __aeabi_cdcmpeq                                                 
00006abd  __aeabi_cdcmple                                                 
00006b43  __aeabi_cdrcmple                                                
00008b89  __aeabi_d2iz                                                    
00002e67  __aeabi_dadd                                                    
000038e9  __aeabi_ddiv                                                    
000049b9  __aeabi_dmul                                                    
00002e5d  __aeabi_dsub                                                    
00009a7b  __aeabi_i2d                                                     
0000a761  __aeabi_lmul                                                    
00006ecd  __aeabi_memclr                                                  
00006ecd  __aeabi_memclr4                                                 
00006ecd  __aeabi_memclr8                                                 
00006225  __aeabi_memcpy                                                  
00006225  __aeabi_memcpy4                                                 
00006225  __aeabi_memcpy8                                                 
00006ecf  __aeabi_memset                                                  
00006ecf  __aeabi_memset4                                                 
00006ecf  __aeabi_memset8                                                 
2000346c  __aeabi_stderr                                                  
20003464  __aeabi_stdin                                                   
20003468  __aeabi_stdout                                                  
00002519  __aeabi_uldivmod                                                
ffffffff  __binit__                                                       
ffffffff  __c_args__                                                      
0001ffa8  __ccfg                                                          
20004d00  __stack                                                         
0000a749  _args_main                                                      
00008dc9  _c_int00                                                        
0000e4a0  _ctypes_                                                        
20002a88  _ftable                                                         
200034b0  _lock                                                           
0000aa0b  _nop                                                            
0000aa03  _register_lock                                                  
0000a9fd  _register_unlock                                                
200034b4  _unlock                                                         
00001dc5  add_device                                                      
0000885d  atoi                                                            
ffffffff  binit                                                           
00001d75  close                                                           
000088a9  copy_in                                                         
0000ae75  copysign                                                        
0000ae75  copysignl                                                       
000097ad  doReception                                                     
2000296c  driverlib_release_0_47020                                       
2000352c  errno                                                           
000063bf  fclose                                                          
00005c11  fflush                                                          
00002db7  fopen                                                           
000063f1  fputc                                                           
00003a21  fputs                                                           
0000a731  free                                                            
00002d8d  freopen                                                         
0000806d  frexp                                                           
0000806d  frexpl                                                          
00007ad5  fseek                                                           
000057c9  ldexp                                                           
000057c9  ldexpl                                                          
00001d51  lseek                                                           
000084e5  ltoa                                                            
000062c1  main                                                            
20003534  main_func_sp                                                    
00009a4d  malloc                                                          
0000a593  memccpy                                                         
0000a095  memchr                                                          
00006225  memcpy                                                          
00006ed5  memset                                                          
00001ca3  open                                                            
20002f6c  pOverrides_fsk                                                  
20002dfc  pOverrides_hsm                                                  
20002e5c  pOverrides_lrm                                                  
20002eb8  pOverrides_ook                                                  
00007451  printf                                                          
000063f1  putc                                                            
00006475  putchar                                                         
00003b2b  puts                                                            
00001c7f  read                                                            
00001bf5  remove                                                          
00001c57  remove_device                                                   
00001c19  rename                                                          
0000e6e8  resourceDB                                                      
0000e7bc  rfPowerTable                                                    
0000e5a1  rfPowerTableSize                                                
000057c9  scalbn                                                          
000057c9  scalbnl                                                         
00005041  setvbuf                                                         
200033b4  shapeovr                                                        
0000a90f  strchr                                                          
0000a779  strcmp                                                          
0000a925  strcpy                                                          
0000aa11  strlen                                                          
00009349  strncpy                                                         
20002960  taskHandle                                                      
0000ad1d  taskRx                                                          
200032c4  ti_sysbios_BIOS_Module__state__V                                
0000a839  ti_sysbios_BIOS_RtsGateProxy_Handle__label__S                   
00009f21  ti_sysbios_BIOS_RtsGateProxy_Object__delete__S                  
0000aef9  ti_sysbios_BIOS_RtsGateProxy_enter__E                           
0000aefd  ti_sysbios_BIOS_RtsGateProxy_leave__E                           
0000af15  ti_sysbios_BIOS_RtsGateProxy_query__E                           
000097dd  ti_sysbios_BIOS_atExitFunc__I                                   
0000a93b  ti_sysbios_BIOS_exitFunc__I                                     
0000ab51  ti_sysbios_BIOS_exit__E                                         
0000ab61  ti_sysbios_BIOS_getCpuFreq__E                                   
0000ad29  ti_sysbios_BIOS_getThreadType__E                                
0000968b  ti_sysbios_BIOS_linkedWithIncorrectBootLibrary__E               
00009dff  ti_sysbios_BIOS_nullFunc__I                                     
00009e6d  ti_sysbios_BIOS_registerRTSLock__I                              
00009e91  ti_sysbios_BIOS_removeRTSLock__I                                
0000a0b5  ti_sysbios_BIOS_rtsLock__I                                      
0000a7a9  ti_sysbios_BIOS_rtsUnlock__I                                    
0000ab71  ti_sysbios_BIOS_setThreadType__E                                
0000980d  ti_sysbios_BIOS_startFunc__I                                    
0000ab81  ti_sysbios_BIOS_start__E                                        
00006039  ti_sysbios_family_arm_cc26xx_Boot_trimDevice                    
0000a7c1  ti_sysbios_family_arm_cc26xx_Timer_Module__startupDone__F       
0000a7c1  ti_sysbios_family_arm_cc26xx_Timer_Module__startupDone__S       
200034c0  ti_sysbios_family_arm_cc26xx_Timer_Module__state__V             
00009eb5  ti_sysbios_family_arm_cc26xx_Timer_Module_startup__E            
20003010  ti_sysbios_family_arm_cc26xx_Timer_Object__table__V             
0000a0d5  ti_sysbios_family_arm_cc26xx_Timer_dynamicStub__E               
0000af01  ti_sysbios_family_arm_cc26xx_Timer_getCount64__E                
000091c1  ti_sysbios_family_arm_cc26xx_Timer_getCurrentTick__E            
00009ed9  ti_sysbios_family_arm_cc26xx_Timer_getMaxTicks__E               
00009485  ti_sysbios_family_arm_cc26xx_Timer_initDevice__I                
00009fb1  ti_sysbios_family_arm_cc26xx_Timer_postInit__I                  
00009659  ti_sysbios_family_arm_cc26xx_Timer_setNextTick__E               
0000af05  ti_sysbios_family_arm_cc26xx_Timer_setPeriod__E                 
0000983d  ti_sysbios_family_arm_cc26xx_Timer_setThreshold__I              
00007209  ti_sysbios_family_arm_cc26xx_Timer_start__E                     
0000ec54  ti_sysbios_family_arm_cc26xx_Timer_startupNeeded__C             
00009efd  ti_sysbios_family_arm_cc26xx_Timer_startup__E                   
20003538  ti_sysbios_family_arm_cc26xx_TimestampProvider_Module__state__V 
0000a0f5  ti_sysbios_family_arm_cc26xx_TimestampProvider_Module_startup__E
0000ac8d  ti_sysbios_family_arm_cc26xx_TimestampProvider_get32__E         
0000a7d9  ti_sysbios_family_arm_cc26xx_TimestampProvider_get64__E         
0000ad35  ti_sysbios_family_arm_cc26xx_TimestampProvider_getFreq__E       
0000e5a2  ti_sysbios_family_arm_cc26xx_TimestampProvider_useClockTimer__C 
0000ec58  ti_sysbios_family_arm_m3_Hwi_E_alreadyDefined__C                
000091f9  ti_sysbios_family_arm_m3_Hwi_Instance_finalize__E               
000065b5  ti_sysbios_family_arm_m3_Hwi_Instance_init__E                   
20003558  ti_sysbios_family_arm_m3_Hwi_Module_State_0_excActive__A        
2000353c  ti_sysbios_family_arm_m3_Hwi_Module_State_0_excContext__A       
20003540  ti_sysbios_family_arm_m3_Hwi_Module_State_0_excStack__A         
0000ed3c  ti_sysbios_family_arm_m3_Hwi_Module__id__C                      
200034c8  ti_sysbios_family_arm_m3_Hwi_Module__root__V                    
0000a7f1  ti_sysbios_family_arm_m3_Hwi_Module__startupDone__F             
0000a7f1  ti_sysbios_family_arm_m3_Hwi_Module__startupDone__S             
20003110  ti_sysbios_family_arm_m3_Hwi_Module__state__V                   
00008bd1  ti_sysbios_family_arm_m3_Hwi_Module_startup__E                  
0000ec5c  ti_sysbios_family_arm_m3_Hwi_NUM_INTERRUPTS__C                  
0000ea08  ti_sysbios_family_arm_m3_Hwi_Object__DESC__C                    
0000e838  ti_sysbios_family_arm_m3_Hwi_Object__PARAMS__C                  
0000ec60  ti_sysbios_family_arm_m3_Hwi_Object__count__C                   
0000a3f1  ti_sysbios_family_arm_m3_Hwi_Object__destruct__S                
0000aa25  ti_sysbios_family_arm_m3_Hwi_Object__get__S                     
200033cc  ti_sysbios_family_arm_m3_Hwi_Object__table__V                   
0000ad41  ti_sysbios_family_arm_m3_Hwi_Params__init__S                    
0000ec64  ti_sysbios_family_arm_m3_Hwi_ccr__C                             
000081d9  ti_sysbios_family_arm_m3_Hwi_construct                          
0000af09  ti_sysbios_family_arm_m3_Hwi_destruct                           
0000ad4d  ti_sysbios_family_arm_m3_Hwi_disableFxn__E                      
00008e0d  ti_sysbios_family_arm_m3_Hwi_disableInterrupt__E                
00008539  ti_sysbios_family_arm_m3_Hwi_dispatchC__I                       
20002250  ti_sysbios_family_arm_m3_Hwi_dispatchTable                      
00005c8d  ti_sysbios_family_arm_m3_Hwi_dispatch__I                        
0000ae7d  ti_sysbios_family_arm_m3_Hwi_doSwiRestore__I                    
0000aeaf  ti_sysbios_family_arm_m3_Hwi_doTaskRestore__I                   
00008e51  ti_sysbios_family_arm_m3_Hwi_enableInterrupt__E                 
0000a115  ti_sysbios_family_arm_m3_Hwi_excHandlerAsm__I                   
0000ec68  ti_sysbios_family_arm_m3_Hwi_excHandlerFunc__C                  
0000a135  ti_sysbios_family_arm_m3_Hwi_excHandler__I                      
00008fe5  ti_sysbios_family_arm_m3_Hwi_getStackInfo__E                    
00006ccd  ti_sysbios_family_arm_m3_Hwi_initNVIC__E                        
00008c19  ti_sysbios_family_arm_m3_Hwi_initStacks__E                      
0000ec6c  ti_sysbios_family_arm_m3_Hwi_nullIsrFunc__C                     
e000e000  ti_sysbios_family_arm_m3_Hwi_nvic                               
0000a5ad  ti_sysbios_family_arm_m3_Hwi_pendSV__I                          
0000a809  ti_sysbios_family_arm_m3_Hwi_plug__E                            
00008231  ti_sysbios_family_arm_m3_Hwi_postInit__I                        
0000ab91  ti_sysbios_family_arm_m3_Hwi_post__E                            
0000ec70  ti_sysbios_family_arm_m3_Hwi_priGroup__C                        
20000000  ti_sysbios_family_arm_m3_Hwi_ramVectors                         
00000000  ti_sysbios_family_arm_m3_Hwi_resetVectors                       
0000aeb5  ti_sysbios_family_arm_m3_Hwi_restoreFxn__E                      
0000a5c5  ti_sysbios_family_arm_m3_Hwi_return                             
0000aebb  ti_sysbios_family_arm_m3_Hwi_setFunc__E                         
0000a40d  ti_sysbios_family_arm_m3_Hwi_setPriority__E                     
0000ae85  ti_sysbios_family_arm_m3_Hwi_startup__E                         
0000aa39  ti_sysbios_family_arm_m3_Hwi_switchFromBootStack__E             
0000af0d  ti_sysbios_family_arm_m3_TaskSupport_Module__startupDone__S     
00008941  ti_sysbios_family_arm_m3_TaskSupport_buildTaskStack             
0000ac9b  ti_sysbios_family_arm_m3_TaskSupport_checkStack__E              
0000ad59  ti_sysbios_family_arm_m3_TaskSupport_getStackAlignment__E       
0000aba1  ti_sysbios_family_arm_m3_TaskSupport_glue                       
0000ec74  ti_sysbios_family_arm_m3_TaskSupport_stackAlignment__C          
00009aa9  ti_sysbios_family_arm_m3_TaskSupport_start__E                   
0000abb1  ti_sysbios_family_arm_m3_TaskSupport_swap__E                    
0000a2f1  ti_sysbios_family_xxx_Hwi_switchAndRunFunc                      
0000a821  ti_sysbios_gates_GateHwi_Handle__label__S                       
0000a30f  ti_sysbios_gates_GateHwi_Instance_init__E                       
0000e954  ti_sysbios_gates_GateHwi_Module__FXNS__C                        
200034d0  ti_sysbios_gates_GateHwi_Module__root__V                        
0000ea28  ti_sysbios_gates_GateHwi_Object__DESC__C                        
0000eb98  ti_sysbios_gates_GateHwi_Object__PARAMS__C                      
0000986d  ti_sysbios_gates_GateHwi_Object__create__S                      
0000a155  ti_sysbios_gates_GateHwi_Object__delete__S                      
20003544  ti_sysbios_gates_GateHwi_Object__table__V                       
0000ad65  ti_sysbios_gates_GateHwi_enter__E                               
0000aec1  ti_sysbios_gates_GateHwi_leave__E                               
0000af11  ti_sysbios_gates_GateHwi_query__E                               
0000a839  ti_sysbios_gates_GateMutex_Handle__label__S                     
0000ec78  ti_sysbios_gates_GateMutex_Instance_State_sem__O                
0000abc1  ti_sysbios_gates_GateMutex_Instance_finalize__E                 
0000a429  ti_sysbios_gates_GateMutex_Instance_init__E                     
0000e978  ti_sysbios_gates_GateMutex_Module__FXNS__C                      
200034d8  ti_sysbios_gates_GateMutex_Module__root__V                      
0000ea48  ti_sysbios_gates_GateMutex_Object__DESC__C                      
0000ebb0  ti_sysbios_gates_GateMutex_Object__PARAMS__C                    
0000989d  ti_sysbios_gates_GateMutex_Object__create__S                    
00009f21  ti_sysbios_gates_GateMutex_Object__delete__S                    
200030d8  ti_sysbios_gates_GateMutex_Object__table__V                     
000098cd  ti_sysbios_gates_GateMutex_enter__E                             
0000a851  ti_sysbios_gates_GateMutex_leave__E                             
0000af15  ti_sysbios_gates_GateMutex_query__E                             
0000a7f1  ti_sysbios_hal_Hwi_HwiProxy_Module__startupDone__S              
0000ad41  ti_sysbios_hal_Hwi_HwiProxy_Params__init__S                     
00008e0d  ti_sysbios_hal_Hwi_HwiProxy_disableInterrupt__E                 
0000ad4d  ti_sysbios_hal_Hwi_HwiProxy_disable__E                          
00008e51  ti_sysbios_hal_Hwi_HwiProxy_enableInterrupt__E                  
00008fe5  ti_sysbios_hal_Hwi_HwiProxy_getStackInfo__E                     
0000ab91  ti_sysbios_hal_Hwi_HwiProxy_post__E                             
0000aeb5  ti_sysbios_hal_Hwi_HwiProxy_restore__E                          
0000ae85  ti_sysbios_hal_Hwi_HwiProxy_startup__E                          
0000aa39  ti_sysbios_hal_Hwi_HwiProxy_switchFromBootStack__E              
0000aa9b  ti_sysbios_hal_Hwi_Module_startup__E                            
00009ad7  ti_sysbios_hal_Hwi_initStack                                    
0000ec7c  ti_sysbios_heaps_HeapMem_E_memory__C                            
0000a869  ti_sysbios_heaps_HeapMem_Handle__label__S                       
20001100  ti_sysbios_heaps_HeapMem_Instance_State_0_buf__A                
00009231  ti_sysbios_heaps_HeapMem_Instance_init__E                       
0000a839  ti_sysbios_heaps_HeapMem_Module_GateProxy_Handle__label__S      
00009f21  ti_sysbios_heaps_HeapMem_Module_GateProxy_Object__delete__S     
0000af19  ti_sysbios_heaps_HeapMem_Module_GateProxy_enter__E              
0000af1d  ti_sysbios_heaps_HeapMem_Module_GateProxy_leave__E              
0000af15  ti_sysbios_heaps_HeapMem_Module_GateProxy_query__E              
0000e890  ti_sysbios_heaps_HeapMem_Module__FXNS__C                        
0000ec80  ti_sysbios_heaps_HeapMem_Module__gateObj__C                     
0000ed3e  ti_sysbios_heaps_HeapMem_Module__id__C                          
200034e0  ti_sysbios_heaps_HeapMem_Module__root__V                        
0000ea68  ti_sysbios_heaps_HeapMem_Object__DESC__C                        
0000e99c  ti_sysbios_heaps_HeapMem_Object__PARAMS__C                      
0000ec84  ti_sysbios_heaps_HeapMem_Object__count__C                       
000098fd  ti_sysbios_heaps_HeapMem_Object__create__S                      
0000a175  ti_sysbios_heaps_HeapMem_Object__delete__S                      
0000aa4d  ti_sysbios_heaps_HeapMem_Object__get__S                         
200033e4  ti_sysbios_heaps_HeapMem_Object__table__V                       
0000727d  ti_sysbios_heaps_HeapMem_allocUnprotected__E                    
00008289  ti_sysbios_heaps_HeapMem_alloc__E                               
000082e1  ti_sysbios_heaps_HeapMem_freeUnprotected__E                     
0000992d  ti_sysbios_heaps_HeapMem_free__E                                
00008c61  ti_sysbios_heaps_HeapMem_getStats__E                            
000094b9  ti_sysbios_heaps_HeapMem_init__I                                
0000aec7  ti_sysbios_heaps_HeapMem_isBlocking__E                          
0000ec88  ti_sysbios_heaps_HeapMem_reqAlign__C                            
0000aca9  ti_sysbios_heaps_HeapMem_restore__E                             
0000a951  ti_sysbios_knl_Clock_Instance_finalize__E                       
00009269  ti_sysbios_knl_Clock_Instance_init__E                           
0000ec8c  ti_sysbios_knl_Clock_Module_State_clockQ__O                     
200034e8  ti_sysbios_knl_Clock_Module__root__V                            
200031d4  ti_sysbios_knl_Clock_Module__state__V                           
0000a195  ti_sysbios_knl_Clock_Module_startup__E                          
0000ea88  ti_sysbios_knl_Clock_Object__DESC__C                            
0000e9c0  ti_sysbios_knl_Clock_Object__PARAMS__C                          
0000a1b5  ti_sysbios_knl_Clock_Object__destruct__S                        
200032e8  ti_sysbios_knl_Clock_Object__table__V                           
0000ad71  ti_sysbios_knl_Clock_Params__init__S                            
0000a7c1  ti_sysbios_knl_Clock_TimerProxy_Module__startupDone__S          
0000af21  ti_sysbios_knl_Clock_TimerProxy_getCurrentTick__E               
0000af25  ti_sysbios_knl_Clock_TimerProxy_getMaxTicks__E                  
0000af29  ti_sysbios_knl_Clock_TimerProxy_setNextTick__E                  
00009efd  ti_sysbios_knl_Clock_TimerProxy_startup__E                      
00009d89  ti_sysbios_knl_Clock_addI__E                                    
000094ed  ti_sysbios_knl_Clock_construct                                  
0000af2d  ti_sysbios_knl_Clock_destruct                                   
0000aa61  ti_sysbios_knl_Clock_doTick__I                                  
00009c0d  ti_sysbios_knl_Clock_getTicksUntilInterrupt__E                  
0000a1d5  ti_sysbios_knl_Clock_getTicks__E                                
0000ad7d  ti_sysbios_knl_Clock_getTimerHandle__E                          
0000a5c7  ti_sysbios_knl_Clock_logTick__E                                 
0000af31  ti_sysbios_knl_Clock_removeI__E                                 
0000a445  ti_sysbios_knl_Clock_scheduleNextTick__E                        
0000af35  ti_sysbios_knl_Clock_setTimeout__E                              
00007871  ti_sysbios_knl_Clock_startI__E                                  
0000a967  ti_sysbios_knl_Clock_start__E                                   
0000a1f5  ti_sysbios_knl_Clock_stop__E                                    
0000ec90  ti_sysbios_knl_Clock_tickPeriod__C                              
0000ec94  ti_sysbios_knl_Clock_triggerClock__C                            
0000aabf  ti_sysbios_knl_Clock_triggerFunc__I                             
00006fc1  ti_sysbios_knl_Clock_walkQueueDynamic__E                        
00006489  ti_sysbios_knl_Clock_workFuncDynamic__E                         
0000ec2c  ti_sysbios_knl_Idle_funcList__A                                 
0000ec34  ti_sysbios_knl_Idle_funcList__C                                 
0000ae8d  ti_sysbios_knl_Idle_loop__E                                     
0000a215  ti_sysbios_knl_Idle_run__E                                      
0000aecd  ti_sysbios_knl_Queue_Instance_init__E                           
200034f0  ti_sysbios_knl_Queue_Module__root__V                            
0000eaa8  ti_sysbios_knl_Queue_Object__DESC__C                            
0000ebc8  ti_sysbios_knl_Queue_Object__PARAMS__C                          
0000a461  ti_sysbios_knl_Queue_Object__destruct__S                        
0000ad89  ti_sysbios_knl_Queue_Object__get__S                             
00009c39  ti_sysbios_knl_Queue_construct                                  
0000ad95  ti_sysbios_knl_Queue_dequeue__E                                 
0000af39  ti_sysbios_knl_Queue_destruct                                   
0000aed3  ti_sysbios_knl_Queue_elemClear__E                               
0000acb7  ti_sysbios_knl_Queue_empty__E                                   
0000ada1  ti_sysbios_knl_Queue_enqueue__E                                 
0000af3d  ti_sysbios_knl_Queue_head__E                                    
0000af41  ti_sysbios_knl_Queue_next__E                                    
0000a47d  ti_sysbios_knl_Queue_put__E                                     
0000acc5  ti_sysbios_knl_Queue_remove__E                                  
0000ec98  ti_sysbios_knl_Semaphore_Instance_State_pendQ__O                
0000abd1  ti_sysbios_knl_Semaphore_Instance_finalize__E                   
00009f45  ti_sysbios_knl_Semaphore_Instance_init__E                       
200034f8  ti_sysbios_knl_Semaphore_Module__root__V                        
0000eac8  ti_sysbios_knl_Semaphore_Object__DESC__C                        
0000e9e4  ti_sysbios_knl_Semaphore_Object__PARAMS__C                      
0000a235  ti_sysbios_knl_Semaphore_Object__destruct__S                    
0000adad  ti_sysbios_knl_Semaphore_Params__init__S                        
0000995d  ti_sysbios_knl_Semaphore_construct                              
00009521  ti_sysbios_knl_Semaphore_create                                 
0000af45  ti_sysbios_knl_Semaphore_destruct                               
00009c65  ti_sysbios_knl_Semaphore_pendTimeout__I                         
00005965  ti_sysbios_knl_Semaphore_pend__E                                
00007b39  ti_sysbios_knl_Semaphore_post__E                                
0000acd3  ti_sysbios_knl_Swi_Instance_finalize__E                         
00008339  ti_sysbios_knl_Swi_Instance_init__E                             
20003174  ti_sysbios_knl_Swi_Module_State_0_readyQ__A                     
20003500  ti_sysbios_knl_Swi_Module__root__V                              
20003308  ti_sysbios_knl_Swi_Module__state__V                             
00009f69  ti_sysbios_knl_Swi_Module_startup__E                            
0000eae8  ti_sysbios_knl_Swi_Object__DESC__C                              
0000e8b8  ti_sysbios_knl_Swi_Object__PARAMS__C                            
0000ec9c  ti_sysbios_knl_Swi_Object__count__C                             
0000a499  ti_sysbios_knl_Swi_Object__destruct__S                          
0000aa75  ti_sysbios_knl_Swi_Object__get__S                               
200031a4  ti_sysbios_knl_Swi_Object__table__V                             
0000adb9  ti_sysbios_knl_Swi_Params__init__S                              
0000858d  ti_sysbios_knl_Swi_construct                                    
0000af49  ti_sysbios_knl_Swi_destruct                                     
0000abe1  ti_sysbios_knl_Swi_disable__E                                   
0000abf1  ti_sysbios_knl_Swi_enabled__E                                   
0000adc5  ti_sysbios_knl_Swi_getTrigger__E                                
0000a881  ti_sysbios_knl_Swi_or__E                                        
0000af4d  ti_sysbios_knl_Swi_postInit__I                                  
00008e95  ti_sysbios_knl_Swi_post__E                                      
000078d9  ti_sysbios_knl_Swi_restoreHwi__E                                
00009555  ti_sysbios_knl_Swi_restore__E                                   
00008725  ti_sysbios_knl_Swi_runLoop__I                                   
00008391  ti_sysbios_knl_Swi_run__I                                       
000085e1  ti_sysbios_knl_Swi_schedule__I                                  
0000aed9  ti_sysbios_knl_Swi_startup__E                                   
0000eca0  ti_sysbios_knl_Task_E_spOutOfBounds__C                          
0000eca4  ti_sysbios_knl_Task_E_stackOverflow__C                          
20000900  ti_sysbios_knl_Task_Instance_State_0_stack__A                   
00006649  ti_sysbios_knl_Task_Instance_finalize__E                        
00005a31  ti_sysbios_knl_Task_Instance_init__E                            
20003548  ti_sysbios_knl_Task_Module_State_0_idleTask__A                  
20002d7c  ti_sysbios_knl_Task_Module_State_0_readyQ__A                    
0000eca8  ti_sysbios_knl_Task_Module_State_inactiveQ__O                   
0000ed40  ti_sysbios_knl_Task_Module__id__C                               
2000348c  ti_sysbios_knl_Task_Module__root__V                             
20003058  ti_sysbios_knl_Task_Module__state__V                            
000080c9  ti_sysbios_knl_Task_Module_startup__E                           
0000eb08  ti_sysbios_knl_Task_Object__DESC__C                             
0000e7fc  ti_sysbios_knl_Task_Object__PARAMS__C                           
0000ecac  ti_sysbios_knl_Task_Object__count__C                            
0000ac01  ti_sysbios_knl_Task_Object__get__S                              
20002fc4  ti_sysbios_knl_Task_Object__table__V                            
0000add1  ti_sysbios_knl_Task_Params__init__S                             
0000af0d  ti_sysbios_knl_Task_SupportProxy_Module__startupDone__S         
0000ac9b  ti_sysbios_knl_Task_SupportProxy_checkStack__E                  
0000ad59  ti_sysbios_knl_Task_SupportProxy_getStackAlignment__E           
00009aa9  ti_sysbios_knl_Task_SupportProxy_start__E                       
0000abb1  ti_sysbios_knl_Task_SupportProxy_swap__E                        
0000ecb0  ti_sysbios_knl_Task_allBlockedFunc__C                           
00008ed9  ti_sysbios_knl_Task_allBlockedFunction__I                       
00009589  ti_sysbios_knl_Task_blockI__E                                   
00005ed9  ti_sysbios_knl_Task_checkStacks__E                              
00008125  ti_sysbios_knl_Task_create                                      
0000ecb4  ti_sysbios_knl_Task_defaultStackHeap__C                         
0000ecb8  ti_sysbios_knl_Task_defaultStackSize__C                         
0000ac11  ti_sysbios_knl_Task_disable__E                                  
0000a4b5  ti_sysbios_knl_Task_enter__I                                    
00009115  ti_sysbios_knl_Task_exit__E                                     
0000ecbc  ti_sysbios_knl_Task_numConstructedTasks__C                      
00006d4d  ti_sysbios_knl_Task_postInit__I                                 
0000998d  ti_sysbios_knl_Task_processVitalTaskFlag__I                     
0000a255  ti_sysbios_knl_Task_restoreHwi__E                               
00009db1  ti_sysbios_knl_Task_restore__E                                  
00007d85  ti_sysbios_knl_Task_schedule__I                                 
0000addd  ti_sysbios_knl_Task_self__E                                     
00007b9d  ti_sysbios_knl_Task_startCore__E                                
0000af51  ti_sysbios_knl_Task_startup__E                                  
0000abb9  ti_sysbios_knl_Task_swapReturn                                  
00009c91  ti_sysbios_knl_Task_unblockI__E                                 
0000a899  ti_sysbios_knl_Task_unblock__E                                  
2000354c  ti_sysbios_utils_Load_Module_State_0_runningTask__A             
20003550  ti_sysbios_utils_Load_Module_State_0_taskStartTime__A           
20002ce4  ti_sysbios_utils_Load_Module__state__V                          
00007c01  ti_sysbios_utils_Load_idleFxn__E                                
0000ecc0  ti_sysbios_utils_Load_postUpdate__C                             
000095bd  ti_sysbios_utils_Load_updateCurrentThreadTime__E                
0000ed42  ti_sysbios_utils_Load_updateInIdle__C                           
00006dcd  ti_sysbios_utils_Load_updateLoads__E                            
00009f8d  ti_sysbios_utils_Load_updateThreadContexts__E                   
00006dcd  ti_sysbios_utils_Load_update__E                                 
0000ecc4  ti_sysbios_utils_Load_windowInMs__C                             
0000a8b1  ti_uia_loggers_LoggerStopMode_Handle__label__S                  
20002700  ti_uia_loggers_LoggerStopMode_Instance_State_0_hdr__A           
20001d00  ti_uia_loggers_LoggerStopMode_Instance_State_0_packetArray__A   
20002780  ti_uia_loggers_LoggerStopMode_Instance_State_1_hdr__A           
20001500  ti_uia_loggers_LoggerStopMode_Instance_State_1_packetArray__A   
20002800  ti_uia_loggers_LoggerStopMode_Instance_State_2_hdr__A           
20001900  ti_uia_loggers_LoggerStopMode_Instance_State_2_packetArray__A   
0000a4d1  ti_uia_loggers_LoggerStopMode_Instance_init__E                  
0000e63c  ti_uia_loggers_LoggerStopMode_Module__FXNS__C                   
0000ecc8  ti_uia_loggers_LoggerStopMode_Module__diagsEnabled__C           
0000eccc  ti_uia_loggers_LoggerStopMode_Module__diagsIncluded__C          
0000ecd0  ti_uia_loggers_LoggerStopMode_Module__diagsMask__C              
0000ed44  ti_uia_loggers_LoggerStopMode_Module__id__C                     
20003508  ti_uia_loggers_LoggerStopMode_Module__root__V                   
0000898d  ti_uia_loggers_LoggerStopMode_Module_startup__E                 
0000eb28  ti_uia_loggers_LoggerStopMode_Object__DESC__C                   
0000e8e0  ti_uia_loggers_LoggerStopMode_Object__PARAMS__C                 
0000ecd4  ti_uia_loggers_LoggerStopMode_Object__count__C                  
000099bd  ti_uia_loggers_LoggerStopMode_Object__create__S                 
0000a275  ti_uia_loggers_LoggerStopMode_Object__delete__S                 
0000ac21  ti_uia_loggers_LoggerStopMode_Object__get__S                    
20002c48  ti_uia_loggers_LoggerStopMode_Object__table__V                  
0000a9a9  ti_uia_loggers_LoggerStopMode_disable__E                        
0000a9bf  ti_uia_loggers_LoggerStopMode_enable__E                         
00007941  ti_uia_loggers_LoggerStopMode_flush__E                          
0000af55  ti_uia_loggers_LoggerStopMode_getContents__E                    
0000af59  ti_uia_loggers_LoggerStopMode_getFilterLevel__E                 
0000af5d  ti_uia_loggers_LoggerStopMode_getInstanceId__E                  
0000af61  ti_uia_loggers_LoggerStopMode_getMaxLength__E                   
0000af65  ti_uia_loggers_LoggerStopMode_getPriority__E                    
0000af69  ti_uia_loggers_LoggerStopMode_getTransferType__E                
00008f1d  ti_uia_loggers_LoggerStopMode_initBuffer__I                     
00006801  ti_uia_loggers_LoggerStopMode_initQueueDescriptor__E            
0000ac31  ti_uia_loggers_LoggerStopMode_isEmpty__E                        
0000ed46  ti_uia_loggers_LoggerStopMode_isTimestampEnabled__C             
000095f1  ti_uia_loggers_LoggerStopMode_reset__E                          
0000af75  ti_uia_loggers_LoggerStopMode_setFilterLevel__E                 
0000af77  ti_uia_loggers_LoggerStopMode_setPriority__E                    
000053a5  ti_uia_loggers_LoggerStopMode_write0__E                         
00004d91  ti_uia_loggers_LoggerStopMode_write1__E                         
00004e79  ti_uia_loggers_LoggerStopMode_write2__E                         
00004bad  ti_uia_loggers_LoggerStopMode_write4__E                         
000046a9  ti_uia_loggers_LoggerStopMode_write8__E                         
000037b1  ti_uia_loggers_LoggerStopMode_writeMemoryRange__E               
0000ecd8  ti_uia_runtime_ILoggerSnapshot_Interface__BASE__C               
0000ecdc  ti_uia_runtime_IUIATransfer_Interface__BASE__C                  
20003498  ti_uia_runtime_QueueDescriptor_Module__state__V                 
000072f1  ti_uia_runtime_QueueDescriptor_addToList__E                     
200034b8  ti_uia_runtime_QueueDescriptor_gPtrToFirstDescriptor            
200034bc  ti_uia_runtime_QueueDescriptor_gUpdateCount                     
0000eb48  uartCC26XXHWAttrs                                               
20001f00  uartCC26XXObjects                                               
200027b0  uartCC26XXRingBuffer                                            
00001bf5  unlink                                                          
00001b65  write                                                           
0000ece0  xdc_runtime_Assert_E_assertFailed__C                            
00008ca9  xdc_runtime_Assert_raise__I                                     
00009625  xdc_runtime_Core_assignLabel__I                                 
00008cf1  xdc_runtime_Core_assignParams__I                                
00008d39  xdc_runtime_Core_constructObject__I                             
00006e4d  xdc_runtime_Core_createObject__I                                
000079a7  xdc_runtime_Core_deleteObject__I                                
0000ece4  xdc_runtime_Error_E_memory__C                                   
0000a4ed  xdc_runtime_Error_check__E                                      
0000ade9  xdc_runtime_Error_init__E                                       
0000ece8  xdc_runtime_Error_policyFxn__C                                  
0000af79  xdc_runtime_Error_policySpin__E                                 
0000ed50  xdc_runtime_Error_policy__C                                     
0000a509  xdc_runtime_Error_raiseX__E                                     
0000adf5  xdc_runtime_Gate_enterSystem__E                                 
0000ac51  xdc_runtime_Gate_leaveSystem__E                                 
0000ecec  xdc_runtime_IFilterLogger_Interface__BASE__C                    
0000ecf0  xdc_runtime_IGateProvider_Interface__BASE__C                    
0000ecf4  xdc_runtime_IHeap_Interface__BASE__C                            
0000ecf8  xdc_runtime_ILogger_Interface__BASE__C                          
0000ecfc  xdc_runtime_IModule_Interface__BASE__C                          
0000a821  xdc_runtime_Main_Module_GateProxy_Handle__label__S              
0000a155  xdc_runtime_Main_Module_GateProxy_Object__delete__S             
0000af11  xdc_runtime_Main_Module_GateProxy_query__E                      
0000a869  xdc_runtime_Memory_HeapProxy_Handle__label__S                   
0000a175  xdc_runtime_Memory_HeapProxy_Object__delete__S                  
0000ae39  xdc_runtime_Memory_HeapProxy_alloc__E                           
0000ae43  xdc_runtime_Memory_HeapProxy_free__E                            
0000ed48  xdc_runtime_Memory_Module__id__C                                
20003554  xdc_runtime_Memory_Module__state__V                             
000075fd  xdc_runtime_Memory_alloc__E                                     
0000ae01  xdc_runtime_Memory_calloc__E                                    
0000ed00  xdc_runtime_Memory_defaultHeapInstance__C                       
0000ac61  xdc_runtime_Memory_free__E                                      
0000ae0d  xdc_runtime_Memory_getMaxDefaultTypeAlign__E                    
0000a525  xdc_runtime_Memory_valloc__E                                    
20003510  xdc_runtime_Startup_Module__state__V                            
00000001  xdc_runtime_Startup__EXECFXN__C                                 
00000001  xdc_runtime_Startup__RESETFXN__C                                
0000ed04  xdc_runtime_Startup_execImpl__C                                 
00008775  xdc_runtime_Startup_exec__E                                     
0000aaad  xdc_runtime_Startup_exec__I                                     
0000ec18  xdc_runtime_Startup_firstFxns__A                                
0000ec3c  xdc_runtime_Startup_firstFxns__C                                
0000ec44  xdc_runtime_Startup_lastFxns__C                                 
0000ed08  xdc_runtime_Startup_maxPasses__C                                
00006039  xdc_runtime_Startup_reset__I                                    
0000ae19  xdc_runtime_Startup_rtsDone__E                                  
0000ebf4  xdc_runtime_Startup_sfxnRts__A                                  
0000ed0c  xdc_runtime_Startup_sfxnRts__C                                  
0000e908  xdc_runtime_Startup_sfxnTab__A                                  
0000ed10  xdc_runtime_Startup_sfxnTab__C                                  
00004ab5  xdc_runtime_Startup_startMods__I                                
20002510  xdc_runtime_SysMin_Module_State_0_outbuf__A                     
200034a4  xdc_runtime_SysMin_Module__state__V                             
0000a295  xdc_runtime_SysMin_Module_startup__E                            
000099ed  xdc_runtime_SysMin_abort__E                                     
0000ed14  xdc_runtime_SysMin_bufSize__C                                   
0000a541  xdc_runtime_SysMin_exit__E                                      
0000ed4a  xdc_runtime_SysMin_flushAtExit__C                               
00008f61  xdc_runtime_SysMin_flush__E                                     
0000ed18  xdc_runtime_SysMin_outputFunc__C                                
00009fd3  xdc_runtime_SysMin_output__I                                    
000092d9  xdc_runtime_SysMin_putch__E                                     
0000a821  xdc_runtime_System_Module_GateProxy_Handle__label__S            
0000a155  xdc_runtime_System_Module_GateProxy_Object__delete__S           
0000af6d  xdc_runtime_System_Module_GateProxy_enter__E                    
0000af71  xdc_runtime_System_Module_GateProxy_leave__E                    
0000af11  xdc_runtime_System_Module_GateProxy_query__E                    
20003518  xdc_runtime_System_Module_State_0_atexitHandlers__A             
0000ed1c  xdc_runtime_System_Module__gateObj__C                           
20003520  xdc_runtime_System_Module__state__V                             
0000aedf  xdc_runtime_System_Module_startup__E                            
000099ed  xdc_runtime_System_SupportProxy_abort__E                        
0000a541  xdc_runtime_System_SupportProxy_exit__E                         
00008f61  xdc_runtime_System_SupportProxy_flush__E                        
000092d9  xdc_runtime_System_SupportProxy_putch__E                        
0000ed20  xdc_runtime_System_abortFxn__C                                  
0000af7b  xdc_runtime_System_abortSpin__E                                 
0000a55d  xdc_runtime_System_abort__E                                     
00009311  xdc_runtime_System_atexit__E                                    
0000ed24  xdc_runtime_System_exitFxn__C                                   
0000af7d  xdc_runtime_System_exitSpin__E                                  
0000a8c9  xdc_runtime_System_exit__E                                      
0000ed28  xdc_runtime_System_maxAtexitHandlers__C                         
00009a1d  xdc_runtime_System_processAtExit__E                             
0000ed4c  xdc_runtime_Text_charCnt__C                                     
0000ed51  xdc_runtime_Text_charTab__A                                     
0000ed2c  xdc_runtime_Text_charTab__C                                     
00009cbd  xdc_runtime_Text_cordText__E                                    
0000ed4e  xdc_runtime_Text_isLoaded__C                                    
0000ed30  xdc_runtime_Text_nameEmpty__C                                   
0000ed34  xdc_runtime_Text_nameStatic__C                                  
0000ed38  xdc_runtime_Text_nameUnknown__C                                 
0000a8e1  xdc_runtime_Text_ropeText__E                                    
0000ac8d  xdc_runtime_Timestamp_SupportProxy_get32__E                     
0000a7d9  xdc_runtime_Timestamp_SupportProxy_get64__E                     
0000ad35  xdc_runtime_Timestamp_SupportProxy_getFreq__E                   


GLOBAL SYMBOLS: SORTED BY Symbol Address 

address   name                                                            
-------   ----                                                            
00000000  __ASM__                                                         
00000000  ti_sysbios_family_arm_m3_Hwi_resetVectors                       
00000001  xdc_runtime_Startup__EXECFXN__C                                 
00000001  xdc_runtime_Startup__RESETFXN__C                                
0000008d  __ISA__                                                         
0000009f  __PLAT__                                                        
000000c6  __TARG__                                                        
000000eb  __TRDR__                                                        
00000300  __STACK_SIZE                                                    
00000869  __TI_printfi                                                    
000014f9  EasyLink_init                                                   
00001841  HOSTwrite                                                       
0000188d  HOSTunlink                                                      
000018c5  HOSTtime64                                                      
00001913  HOSTtime                                                        
0000194d  HOSTrename                                                      
000019ab  HOSTread                                                        
000019f7  HOSTopen                                                        
00001a49  HOSTlseek                                                       
00001aa5  HOSTgetenv                                                      
00001ae3  HOSTclose                                                       
00001b1b  HOSTclock                                                       
00001b65  write                                                           
00001bf5  remove                                                          
00001bf5  unlink                                                          
00001c19  rename                                                          
00001c57  remove_device                                                   
00001c7f  read                                                            
00001ca3  open                                                            
00001d51  lseek                                                           
00001d75  close                                                           
00001dc5  add_device                                                      
00001e71  EasyLink_receive                                                
000020c9  NOROM_SysCtrlSetRechargeBeforePowerDown                         
000022f1  Power_sleep                                                     
00002519  __aeabi_uldivmod                                                
000028f9  RF_postCmd                                                      
00002ad5  PIN_init                                                        
00002d61  __TI_cleanup                                                    
00002d8d  freopen                                                         
00002db7  fopen                                                           
00002e5d  __aeabi_dsub                                                    
00002e67  __aeabi_dadd                                                    
00003015  EasyLink_setRfPwr                                               
000031b9  PowerCC26XX_doCalibrate                                         
00003359  UARTCC26XX_open                                                 
000037b1  ti_uia_loggers_LoggerStopMode_writeMemoryRange__E               
000038e9  __aeabi_ddiv                                                    
00003a21  fputs                                                           
00003b2b  puts                                                            
00003b55  NOROM_SetupAfterColdResetWakeupFromShutDownCfg3                 
00003c85  Power_init                                                      
00004251  UARTCC26XX_read                                                 
00004599  UARTCC26XX_hwiIntFxn                                            
000046a9  ti_uia_loggers_LoggerStopMode_write8__E                         
000047b5  RF_close                                                        
000048bd  UARTCC26XX_write                                                
000049b9  __aeabi_dmul                                                    
00004ab5  xdc_runtime_Startup_startMods__I                                
00004bad  ti_uia_loggers_LoggerStopMode_write4__E                         
00004ca1  NOROM_SetupAfterColdResetWakeupFromShutDownCfg2                 
00004d91  ti_uia_loggers_LoggerStopMode_write1__E                         
00004e79  ti_uia_loggers_LoggerStopMode_write2__E                         
00005041  setvbuf                                                         
0000511d  NOROM_RFCRTrim                                                  
000053a5  ti_uia_loggers_LoggerStopMode_write0__E                         
0000547d  NOROM_RFCRfTrimRead                                             
00005551  PowerCC26XX_standbyPolicy                                       
00005625  Power_releaseDependency                                         
000056f9  Power_setDependency                                             
000057c9  ldexp                                                           
000057c9  ldexpl                                                          
000057c9  scalbn                                                          
000057c9  scalbnl                                                         
00005899  RF_open                                                         
00005965  ti_sysbios_knl_Semaphore_pend__E                                
00005a31  ti_sysbios_knl_Task_Instance_init__E                            
00005bc5  __TI_doflush                                                    
00005c11  fflush                                                          
00005c8d  ti_sysbios_family_arm_m3_Hwi_dispatch__I                        
00005ed9  ti_sysbios_knl_Task_checkStacks__E                              
00005f8d  __TI_wrt_ok                                                     
00005fef  __TI_rd_ok                                                      
00006039  NOROM_SetupTrimDevice                                           
00006039  ti_sysbios_family_arm_cc26xx_Boot_trimDevice                    
00006039  xdc_runtime_Startup_reset__I                                    
000060e1  NOROM_SetupAfterColdResetWakeupFromShutDownCfg1                 
00006185  __TI_auto_init                                                  
00006225  __aeabi_memcpy                                                  
00006225  __aeabi_memcpy4                                                 
00006225  __aeabi_memcpy8                                                 
00006225  memcpy                                                          
000062c1  main                                                            
00006359  __TI_closefile                                                  
000063bf  fclose                                                          
000063f1  fputc                                                           
000063f1  putc                                                            
00006475  putchar                                                         
00006489  ti_sysbios_knl_Clock_workFuncDynamic__E                         
00006521  PIN_open                                                        
000065b5  ti_sysbios_family_arm_m3_Hwi_Instance_init__E                   
00006649  ti_sysbios_knl_Task_Instance_finalize__E                        
00006801  ti_uia_loggers_LoggerStopMode_initQueueDescriptor__E            
0000691d  UARTCC26XX_writeCancel                                          
00006abd  __aeabi_cdcmpeq                                                 
00006abd  __aeabi_cdcmple                                                 
00006b43  __aeabi_cdrcmple                                                
00006c4d  RF_pendCmd                                                      
00006ccd  ti_sysbios_family_arm_m3_Hwi_initNVIC__E                        
00006d4d  ti_sysbios_knl_Task_postInit__I                                 
00006dcd  ti_sysbios_utils_Load_updateLoads__E                            
00006dcd  ti_sysbios_utils_Load_update__E                                 
00006e4d  xdc_runtime_Core_createObject__I                                
00006ecd  __aeabi_memclr                                                  
00006ecd  __aeabi_memclr4                                                 
00006ecd  __aeabi_memclr8                                                 
00006ecf  __aeabi_memset                                                  
00006ecf  __aeabi_memset4                                                 
00006ecf  __aeabi_memset8                                                 
00006ed5  memset                                                          
00006f49  UARTCC26XX_close                                                
00006fc1  ti_sysbios_knl_Clock_walkQueueDynamic__E                        
00007039  NOROM_SetupSetVddrLevel                                         
000070ad  PowerCC26XX_auxISR                                              
00007209  ti_sysbios_family_arm_cc26xx_Timer_start__E                     
0000727d  ti_sysbios_heaps_HeapMem_allocUnprotected__E                    
000072f1  ti_uia_runtime_QueueDescriptor_addToList__E                     
000073d9  NOROM_ChipInfo_GetHwRevision                                    
00007451  printf                                                          
000074b9  NOROM_SetupGetTrimForAmpcompCtrl                                
00007525  PowerCC26XX_calibrate                                           
00007591  UARTCC26XX_readCancel                                           
000075fd  xdc_runtime_Memory_alloc__E                                     
00007669  NOROM_SetupGetTrimForAnabypassValue1                            
000076d1  NOROM_SysCtrl_DCDC_VoltageConditionalControl                    
00007739  RF_getCurrentTime                                               
000077a1  __TI_decompress_lzss                                            
00007809  __TI_writemsg                                                   
00007837  C$$IO$$                                                         
0000783b  __TI_readmsg                                                    
00007871  ti_sysbios_knl_Clock_startI__E                                  
000078d9  ti_sysbios_knl_Swi_restoreHwi__E                                
00007941  ti_uia_loggers_LoggerStopMode_flush__E                          
000079a7  xdc_runtime_Core_deleteObject__I                                
00007a0d  NOROM_OSCHF_AttemptToSwitchToXosc                               
00007a71  UARTCC26XX_control                                              
00007ad5  fseek                                                           
00007b39  ti_sysbios_knl_Semaphore_post__E                                
00007b9d  ti_sysbios_knl_Task_startCore__E                                
00007c01  ti_sysbios_utils_Load_idleFxn__E                                
00007c65  NOROM_OSCClockSourceSet                                         
00007cc5  PowerCC26XX_RCOSC_clockFunc                                     
00007d85  ti_sysbios_knl_Task_schedule__I                                 
00007e45  NOROM_SysCtrlAdjustRechargeAfterPowerDown                       
00007ea1  PIN_remove                                                      
0000806d  frexp                                                           
0000806d  frexpl                                                          
000080c9  ti_sysbios_knl_Task_Module_startup__E                           
00008125  ti_sysbios_knl_Task_create                                      
00008181  PowerCC26XX_initiateCalibration                                 
000081d9  ti_sysbios_family_arm_m3_Hwi_construct                          
00008231  ti_sysbios_family_arm_m3_Hwi_postInit__I                        
00008289  ti_sysbios_heaps_HeapMem_alloc__E                               
000082e1  ti_sysbios_heaps_HeapMem_freeUnprotected__E                     
00008339  ti_sysbios_knl_Swi_Instance_init__E                             
00008391  ti_sysbios_knl_Swi_run__I                                       
000084e5  ltoa                                                            
00008539  ti_sysbios_family_arm_m3_Hwi_dispatchC__I                       
0000858d  ti_sysbios_knl_Swi_construct                                    
000085e1  ti_sysbios_knl_Swi_schedule__I                                  
00008635  NOROM_SetupSetCacheModeAccordingToCcfgSetting                   
00008725  ti_sysbios_knl_Swi_runLoop__I                                   
00008775  xdc_runtime_Startup_exec__E                                     
000087c5  ToServerCom_init                                                
0000885d  atoi                                                            
000088a9  copy_in                                                         
00008941  ti_sysbios_family_arm_m3_TaskSupport_buildTaskStack             
0000898d  ti_uia_loggers_LoggerStopMode_Module_startup__E                 
000089d9  NOROM_ChipInfo_GetChipFamily                                    
00008a21  PIN_setOutputEnable                                             
00008ab1  RFCom_receivePacket                                             
00008af9  RF_runCmd                                                       
00008b89  __aeabi_d2iz                                                    
00008bd1  ti_sysbios_family_arm_m3_Hwi_Module_startup__E                  
00008c19  ti_sysbios_family_arm_m3_Hwi_initStacks__E                      
00008c61  ti_sysbios_heaps_HeapMem_getStats__E                            
00008ca9  xdc_runtime_Assert_raise__I                                     
00008cf1  xdc_runtime_Core_assignParams__I                                
00008d39  xdc_runtime_Core_constructObject__I                             
00008d81  RingBuf_put                                                     
00008dc9  ResetISR                                                        
00008dc9  _c_int00                                                        
00008e0d  ti_sysbios_family_arm_m3_Hwi_disableInterrupt__E                
00008e0d  ti_sysbios_hal_Hwi_HwiProxy_disableInterrupt__E                 
00008e51  ti_sysbios_family_arm_m3_Hwi_enableInterrupt__E                 
00008e51  ti_sysbios_hal_Hwi_HwiProxy_enableInterrupt__E                  
00008e95  ti_sysbios_knl_Swi_post__E                                      
00008ed9  ti_sysbios_knl_Task_allBlockedFunction__I                       
00008f1d  ti_uia_loggers_LoggerStopMode_initBuffer__I                     
00008f61  xdc_runtime_SysMin_flush__E                                     
00008f61  xdc_runtime_System_SupportProxy_flush__E                        
00008fa5  RingBuf_get                                                     
00008fe5  ti_sysbios_family_arm_m3_Hwi_getStackInfo__E                    
00008fe5  ti_sysbios_hal_Hwi_HwiProxy_getStackInfo__E                     
00009025  NOROM_OSC_HPOSCRelativeFrequencyOffsetGet                       
00009061  NOROM_RFCSynthPowerDown                                         
0000909d  PIN_setOutputValue                                              
000090d9  UARTCC26XX_swiIntFxn                                            
00009115  ti_sysbios_knl_Task_exit__E                                     
00009151  UART_init                                                       
000091c1  ti_sysbios_family_arm_cc26xx_Timer_getCurrentTick__E            
000091f9  ti_sysbios_family_arm_m3_Hwi_Instance_finalize__E               
00009231  ti_sysbios_heaps_HeapMem_Instance_init__E                       
00009269  ti_sysbios_knl_Clock_Instance_init__E                           
000092d9  xdc_runtime_SysMin_putch__E                                     
000092d9  xdc_runtime_System_SupportProxy_putch__E                        
00009311  xdc_runtime_System_atexit__E                                    
00009349  strncpy                                                         
000093b5  NOROM_OSCHF_SwitchToRcOscTurnOffXosc                            
000093e9  PIN_setConfig                                                   
00009485  ti_sysbios_family_arm_cc26xx_Timer_initDevice__I                
000094b9  ti_sysbios_heaps_HeapMem_init__I                                
000094ed  ti_sysbios_knl_Clock_construct                                  
00009521  ti_sysbios_knl_Semaphore_create                                 
00009555  ti_sysbios_knl_Swi_restore__E                                   
00009589  ti_sysbios_knl_Task_blockI__E                                   
000095bd  ti_sysbios_utils_Load_updateCurrentThreadTime__E                
000095f1  ti_uia_loggers_LoggerStopMode_reset__E                          
00009625  xdc_runtime_Core_assignLabel__I                                 
00009659  ti_sysbios_family_arm_cc26xx_Timer_setNextTick__E               
0000968b  ti_sysbios_BIOS_linkedWithIncorrectBootLibrary__E               
0000968d  NOROM_ChipInfo_GetChipType                                      
000096bd  NOROM_SetupSetAonRtcSubSecInc                                   
000096ed  Power_releaseConstraint                                         
0000971d  Power_setConstraint                                             
0000974d  UART_open                                                       
000097ad  doReception                                                     
000097dd  ti_sysbios_BIOS_atExitFunc__I                                   
0000980d  ti_sysbios_BIOS_startFunc__I                                    
0000983d  ti_sysbios_family_arm_cc26xx_Timer_setThreshold__I              
0000986d  ti_sysbios_gates_GateHwi_Object__create__S                      
0000989d  ti_sysbios_gates_GateMutex_Object__create__S                    
000098cd  ti_sysbios_gates_GateMutex_enter__E                             
000098fd  ti_sysbios_heaps_HeapMem_Object__create__S                      
0000992d  ti_sysbios_heaps_HeapMem_free__E                                
0000995d  ti_sysbios_knl_Semaphore_construct                              
0000998d  ti_sysbios_knl_Task_processVitalTaskFlag__I                     
000099bd  ti_uia_loggers_LoggerStopMode_Object__create__S                 
000099ed  xdc_runtime_SysMin_abort__E                                     
000099ed  xdc_runtime_System_SupportProxy_abort__E                        
00009a1d  xdc_runtime_System_processAtExit__E                             
00009a4d  malloc                                                          
00009a7b  __aeabi_i2d                                                     
00009aa9  ti_sysbios_family_arm_m3_TaskSupport_start__E                   
00009aa9  ti_sysbios_knl_Task_SupportProxy_start__E                       
00009ad7  ti_sysbios_hal_Hwi_initStack                                    
00009b05  NOROM_DDI32RegWrite                                             
00009b31  NOROM_OSCClockSourceGet                                         
00009b5d  NOROM_SetupGetTrimForRadcExtCfg                                 
00009b89  PINCC26XX_setMux                                                
00009bb5  ToServerCom_write                                               
00009c0d  ti_sysbios_knl_Clock_getTicksUntilInterrupt__E                  
00009c39  ti_sysbios_knl_Queue_construct                                  
00009c65  ti_sysbios_knl_Semaphore_pendTimeout__I                         
00009c91  ti_sysbios_knl_Task_unblockI__E                                 
00009cbd  xdc_runtime_Text_cordText__E                                    
00009ce9  NOROM_AONBatMonTemperatureGetDegC                               
00009d11  Power_registerNotify                                            
00009d61  SafeHapiVoid                                                    
00009d89  ti_sysbios_knl_Clock_addI__E                                    
00009db1  ti_sysbios_knl_Task_restore__E                                  
00009dd9  List_put                                                        
00009dff  ti_sysbios_BIOS_nullFunc__I                                     
00009e01  PINCC26XX_getPinCount                                           
00009e6d  ti_sysbios_BIOS_registerRTSLock__I                              
00009e91  ti_sysbios_BIOS_removeRTSLock__I                                
00009eb5  ti_sysbios_family_arm_cc26xx_Timer_Module_startup__E            
00009ed9  ti_sysbios_family_arm_cc26xx_Timer_getMaxTicks__E               
00009efd  ti_sysbios_family_arm_cc26xx_Timer_startup__E                   
00009efd  ti_sysbios_knl_Clock_TimerProxy_startup__E                      
00009f21  ti_sysbios_BIOS_RtsGateProxy_Object__delete__S                  
00009f21  ti_sysbios_gates_GateMutex_Object__delete__S                    
00009f21  ti_sysbios_heaps_HeapMem_Module_GateProxy_Object__delete__S     
00009f45  ti_sysbios_knl_Semaphore_Instance_init__E                       
00009f69  ti_sysbios_knl_Swi_Module_startup__E                            
00009f8d  ti_sysbios_utils_Load_updateThreadContexts__E                   
00009fb1  ti_sysbios_family_arm_cc26xx_Timer_postInit__I                  
00009fd3  xdc_runtime_SysMin_output__I                                    
00009ff5  NOROM_RFCAdi3VcoLdoVoltageMode                                  
0000a015  NOROM_RFCDoorbellSendTo                                         
0000a035  NOROM_SetupGetTrimForXoscHfCtl                                  
0000a055  Power_unregisterNotify                                          
0000a095  memchr                                                          
0000a0b5  ti_sysbios_BIOS_rtsLock__I                                      
0000a0d5  ti_sysbios_family_arm_cc26xx_Timer_dynamicStub__E               
0000a0f5  ti_sysbios_family_arm_cc26xx_TimestampProvider_Module_startup__E
0000a115  ti_sysbios_family_arm_m3_Hwi_excHandlerAsm__I                   
0000a135  ti_sysbios_family_arm_m3_Hwi_excHandler__I                      
0000a155  ti_sysbios_gates_GateHwi_Object__delete__S                      
0000a155  xdc_runtime_Main_Module_GateProxy_Object__delete__S             
0000a155  xdc_runtime_System_Module_GateProxy_Object__delete__S           
0000a175  ti_sysbios_heaps_HeapMem_Object__delete__S                      
0000a175  xdc_runtime_Memory_HeapProxy_Object__delete__S                  
0000a195  ti_sysbios_knl_Clock_Module_startup__E                          
0000a1b5  ti_sysbios_knl_Clock_Object__destruct__S                        
0000a1d5  ti_sysbios_knl_Clock_getTicks__E                                
0000a1f5  ti_sysbios_knl_Clock_stop__E                                    
0000a215  ti_sysbios_knl_Idle_run__E                                      
0000a235  ti_sysbios_knl_Semaphore_Object__destruct__S                    
0000a255  ti_sysbios_knl_Task_restoreHwi__E                               
0000a275  ti_uia_loggers_LoggerStopMode_Object__delete__S                 
0000a295  xdc_runtime_SysMin_Module_startup__E                            
0000a2b5  PIN_close                                                       
0000a2d3  Power_getTransitionLatency                                      
0000a2f1  ti_sysbios_family_xxx_Hwi_switchAndRunFunc                      
0000a30f  ti_sysbios_gates_GateHwi_Instance_init__E                       
0000a311  NOROM_SetupGetTrimForAmpcompTh2                                 
0000a32d  NOROM_SetupGetTrimForRcOscLfRtuneCtuneTrim                      
0000a3f1  ti_sysbios_family_arm_m3_Hwi_Object__destruct__S                
0000a40d  ti_sysbios_family_arm_m3_Hwi_setPriority__E                     
0000a429  ti_sysbios_gates_GateMutex_Instance_init__E                     
0000a445  ti_sysbios_knl_Clock_scheduleNextTick__E                        
0000a461  ti_sysbios_knl_Queue_Object__destruct__S                        
0000a47d  ti_sysbios_knl_Queue_put__E                                     
0000a499  ti_sysbios_knl_Swi_Object__destruct__S                          
0000a4b5  ti_sysbios_knl_Task_enter__I                                    
0000a4d1  ti_uia_loggers_LoggerStopMode_Instance_init__E                  
0000a4ed  xdc_runtime_Error_check__E                                      
0000a509  xdc_runtime_Error_raiseX__E                                     
0000a525  xdc_runtime_Memory_valloc__E                                    
0000a541  xdc_runtime_SysMin_exit__E                                      
0000a541  xdc_runtime_System_SupportProxy_exit__E                         
0000a55d  xdc_runtime_System_abort__E                                     
0000a579  List_remove                                                     
0000a593  memccpy                                                         
0000a5ad  ti_sysbios_family_arm_m3_Hwi_pendSV__I                          
0000a5c5  ti_sysbios_family_arm_m3_Hwi_return                             
0000a5c7  ti_sysbios_knl_Clock_logTick__E                                 
0000a5c9  NOROM_AONRTCCurrentCompareValueGet                              
0000a5e1  NOROM_ChipInfo_GetPackageType                                   
0000a5f9  NOROM_OSCHF_TurnOnXosc                                          
0000a611  NOROM_RFCCpeIntGetAndClear                                      
0000a629  NOROM_SetupGetTrimForAdcShModeEn                                
0000a641  NOROM_SetupGetTrimForAdcShVbufEn                                
0000a659  NOROM_SetupGetTrimForAmpcompTh1                                 
0000a671  NOROM_SetupGetTrimForDblrLoopFilterResetVoltage                 
0000a689  NOROM_SetupGetTrimForRcOscLfIBiasTrim                           
0000a6a1  NOROM_SetupGetTrimForXoscLfRegulatorAndCmirrwrRatio             
0000a6b9  Power_idleFunc                                                  
0000a6e9  UARTCC26XX_init                                                 
0000a701  UART_Params_init                                                
0000a731  free                                                            
0000a749  _args_main                                                      
0000a761  __aeabi_lmul                                                    
0000a779  strcmp                                                          
0000a7a9  ti_sysbios_BIOS_rtsUnlock__I                                    
0000a7c1  ti_sysbios_family_arm_cc26xx_Timer_Module__startupDone__F       
0000a7c1  ti_sysbios_family_arm_cc26xx_Timer_Module__startupDone__S       
0000a7c1  ti_sysbios_knl_Clock_TimerProxy_Module__startupDone__S          
0000a7d9  ti_sysbios_family_arm_cc26xx_TimestampProvider_get64__E         
0000a7d9  xdc_runtime_Timestamp_SupportProxy_get64__E                     
0000a7f1  ti_sysbios_family_arm_m3_Hwi_Module__startupDone__F             
0000a7f1  ti_sysbios_family_arm_m3_Hwi_Module__startupDone__S             
0000a7f1  ti_sysbios_hal_Hwi_HwiProxy_Module__startupDone__S              
0000a809  ti_sysbios_family_arm_m3_Hwi_plug__E                            
0000a821  ti_sysbios_gates_GateHwi_Handle__label__S                       
0000a821  xdc_runtime_Main_Module_GateProxy_Handle__label__S              
0000a821  xdc_runtime_System_Module_GateProxy_Handle__label__S            
0000a839  ti_sysbios_BIOS_RtsGateProxy_Handle__label__S                   
0000a839  ti_sysbios_gates_GateMutex_Handle__label__S                     
0000a839  ti_sysbios_heaps_HeapMem_Module_GateProxy_Handle__label__S      
0000a851  ti_sysbios_gates_GateMutex_leave__E                             
0000a869  ti_sysbios_heaps_HeapMem_Handle__label__S                       
0000a869  xdc_runtime_Memory_HeapProxy_Handle__label__S                   
0000a881  ti_sysbios_knl_Swi_or__E                                        
0000a899  ti_sysbios_knl_Task_unblock__E                                  
0000a8b1  ti_uia_loggers_LoggerStopMode_Handle__label__S                  
0000a8c9  xdc_runtime_System_exit__E                                      
0000a8e1  xdc_runtime_Text_ropeText__E                                    
0000a8f9  NOROM_ThisCodeIsBuiltForCC13xxHwRev20AndLater_HaltIfViolated    
0000a90f  strchr                                                          
0000a925  strcpy                                                          
0000a93b  ti_sysbios_BIOS_exitFunc__I                                     
0000a951  ti_sysbios_knl_Clock_Instance_finalize__E                       
0000a967  ti_sysbios_knl_Clock_start__E                                   
0000a9a9  ti_uia_loggers_LoggerStopMode_disable__E                        
0000a9bf  ti_uia_loggers_LoggerStopMode_enable__E                         
0000a9d5  NOROM_AONRTCCurrent64BitValueGet                                
0000a9e9  RF_Params_init                                                  
0000a9fd  _register_unlock                                                
0000aa03  _register_lock                                                  
0000aa0b  _nop                                                            
0000aa11  strlen                                                          
0000aa25  ti_sysbios_family_arm_m3_Hwi_Object__get__S                     
0000aa39  ti_sysbios_family_arm_m3_Hwi_switchFromBootStack__E             
0000aa39  ti_sysbios_hal_Hwi_HwiProxy_switchFromBootStack__E              
0000aa4d  ti_sysbios_heaps_HeapMem_Object__get__S                         
0000aa61  ti_sysbios_knl_Clock_doTick__I                                  
0000aa75  ti_sysbios_knl_Swi_Object__get__S                               
0000aa89  RingBuf_construct                                               
0000aa9b  ti_sysbios_hal_Hwi_Module_startup__E                            
0000aaad  xdc_runtime_Startup_exec__I                                     
0000aabf  ti_sysbios_knl_Clock_triggerFunc__I                             
0000aad1  NOROM_RFCRfTrimSet                                              
0000aae1  NOROM_SetupGetTrimForXoscHfFastStart                            
0000aaf1  NOROM_SetupGetTrimForXoscHfIbiastherm                           
0000ab01  RFCom_init                                                      
0000ab51  ti_sysbios_BIOS_exit__E                                         
0000ab61  ti_sysbios_BIOS_getCpuFreq__E                                   
0000ab71  ti_sysbios_BIOS_setThreadType__E                                
0000ab81  ti_sysbios_BIOS_start__E                                        
0000ab91  ti_sysbios_family_arm_m3_Hwi_post__E                            
0000ab91  ti_sysbios_hal_Hwi_HwiProxy_post__E                             
0000aba1  ti_sysbios_family_arm_m3_TaskSupport_glue                       
0000abb1  ti_sysbios_family_arm_m3_TaskSupport_swap__E                    
0000abb1  ti_sysbios_knl_Task_SupportProxy_swap__E                        
0000abb9  ti_sysbios_knl_Task_swapReturn                                  
0000abc1  ti_sysbios_gates_GateMutex_Instance_finalize__E                 
0000abd1  ti_sysbios_knl_Semaphore_Instance_finalize__E                   
0000abe1  ti_sysbios_knl_Swi_disable__E                                   
0000abf1  ti_sysbios_knl_Swi_enabled__E                                   
0000ac01  ti_sysbios_knl_Task_Object__get__S                              
0000ac11  ti_sysbios_knl_Task_disable__E                                  
0000ac21  ti_uia_loggers_LoggerStopMode_Object__get__S                    
0000ac31  ti_uia_loggers_LoggerStopMode_isEmpty__E                        
0000ac51  xdc_runtime_Gate_leaveSystem__E                                 
0000ac61  xdc_runtime_Memory_free__E                                      
0000ac71  NOROM_VIMSModeGet                                               
0000ac7f  __TI_decompress_none                                            
0000ac8d  ti_sysbios_family_arm_cc26xx_TimestampProvider_get32__E         
0000ac8d  xdc_runtime_Timestamp_SupportProxy_get32__E                     
0000ac9b  ti_sysbios_family_arm_m3_TaskSupport_checkStack__E              
0000ac9b  ti_sysbios_knl_Task_SupportProxy_checkStack__E                  
0000aca9  ti_sysbios_heaps_HeapMem_restore__E                             
0000acb7  ti_sysbios_knl_Queue_empty__E                                   
0000acc5  ti_sysbios_knl_Queue_remove__E                                  
0000acd3  ti_sysbios_knl_Swi_Instance_finalize__E                         
0000ace1  NOROM_CPUcpsid                                                  
0000aced  NOROM_CPUcpsie                                                  
0000acf9  Power_getConstraintMask                                         
0000ad05  Power_getDependencyCount                                        
0000ad11  __TI_zero_init                                                  
0000ad1d  taskRx                                                          
0000ad29  ti_sysbios_BIOS_getThreadType__E                                
0000ad35  ti_sysbios_family_arm_cc26xx_TimestampProvider_getFreq__E       
0000ad35  xdc_runtime_Timestamp_SupportProxy_getFreq__E                   
0000ad41  ti_sysbios_family_arm_m3_Hwi_Params__init__S                    
0000ad41  ti_sysbios_hal_Hwi_HwiProxy_Params__init__S                     
0000ad4d  ti_sysbios_family_arm_m3_Hwi_disableFxn__E                      
0000ad4d  ti_sysbios_hal_Hwi_HwiProxy_disable__E                          
0000ad59  ti_sysbios_family_arm_m3_TaskSupport_getStackAlignment__E       
0000ad59  ti_sysbios_knl_Task_SupportProxy_getStackAlignment__E           
0000ad65  ti_sysbios_gates_GateHwi_enter__E                               
0000ad71  ti_sysbios_knl_Clock_Params__init__S                            
0000ad7d  ti_sysbios_knl_Clock_getTimerHandle__E                          
0000ad89  ti_sysbios_knl_Queue_Object__get__S                             
0000ad95  ti_sysbios_knl_Queue_dequeue__E                                 
0000ada1  ti_sysbios_knl_Queue_enqueue__E                                 
0000adad  ti_sysbios_knl_Semaphore_Params__init__S                        
0000adb9  ti_sysbios_knl_Swi_Params__init__S                              
0000adc5  ti_sysbios_knl_Swi_getTrigger__E                                
0000add1  ti_sysbios_knl_Task_Params__init__S                             
0000addd  ti_sysbios_knl_Task_self__E                                     
0000ade9  xdc_runtime_Error_init__E                                       
0000adf5  xdc_runtime_Gate_enterSystem__E                                 
0000ae01  xdc_runtime_Memory_calloc__E                                    
0000ae0d  xdc_runtime_Memory_getMaxDefaultTypeAlign__E                    
0000ae19  xdc_runtime_Startup_rtsDone__E                                  
0000ae25  List_empty                                                      
0000ae2f  UART_write                                                      
0000ae39  xdc_runtime_Memory_HeapProxy_alloc__E                           
0000ae43  xdc_runtime_Memory_HeapProxy_free__E                            
0000ae75  copysign                                                        
0000ae75  copysignl                                                       
0000ae7d  ti_sysbios_family_arm_m3_Hwi_doSwiRestore__I                    
0000ae85  ti_sysbios_family_arm_m3_Hwi_startup__E                         
0000ae85  ti_sysbios_hal_Hwi_HwiProxy_startup__E                          
0000ae8d  ti_sysbios_knl_Idle_loop__E                                     
0000ae9d  UARTCC26XX_readPolling                                          
0000aea3  UARTCC26XX_writePolling                                         
0000aeaf  ti_sysbios_family_arm_m3_Hwi_doTaskRestore__I                   
0000aeb5  HwiP_restore                                                    
0000aeb5  ti_sysbios_family_arm_m3_Hwi_restoreFxn__E                      
0000aeb5  ti_sysbios_hal_Hwi_HwiProxy_restore__E                          
0000aebb  ti_sysbios_family_arm_m3_Hwi_setFunc__E                         
0000aec1  ti_sysbios_gates_GateHwi_leave__E                               
0000aec7  ti_sysbios_heaps_HeapMem_isBlocking__E                          
0000aecd  ti_sysbios_knl_Queue_Instance_init__E                           
0000aed3  ti_sysbios_knl_Queue_elemClear__E                               
0000aed9  ti_sysbios_knl_Swi_startup__E                                   
0000aedf  xdc_runtime_System_Module_startup__E                            
0000aee5  HwiP_disable                                                    
0000aee9  List_head                                                       
0000aeed  List_next                                                       
0000aef9  ti_sysbios_BIOS_RtsGateProxy_enter__E                           
0000aefd  ti_sysbios_BIOS_RtsGateProxy_leave__E                           
0000af01  ti_sysbios_family_arm_cc26xx_Timer_getCount64__E                
0000af05  ti_sysbios_family_arm_cc26xx_Timer_setPeriod__E                 
0000af09  ti_sysbios_family_arm_m3_Hwi_destruct                           
0000af0d  ti_sysbios_family_arm_m3_TaskSupport_Module__startupDone__S     
0000af0d  ti_sysbios_knl_Task_SupportProxy_Module__startupDone__S         
0000af11  ti_sysbios_gates_GateHwi_query__E                               
0000af11  xdc_runtime_Main_Module_GateProxy_query__E                      
0000af11  xdc_runtime_System_Module_GateProxy_query__E                    
0000af15  ti_sysbios_BIOS_RtsGateProxy_query__E                           
0000af15  ti_sysbios_gates_GateMutex_query__E                             
0000af15  ti_sysbios_heaps_HeapMem_Module_GateProxy_query__E              
0000af19  ti_sysbios_heaps_HeapMem_Module_GateProxy_enter__E              
0000af1d  ti_sysbios_heaps_HeapMem_Module_GateProxy_leave__E              
0000af21  ti_sysbios_knl_Clock_TimerProxy_getCurrentTick__E               
0000af25  ti_sysbios_knl_Clock_TimerProxy_getMaxTicks__E                  
0000af29  ti_sysbios_knl_Clock_TimerProxy_setNextTick__E                  
0000af2d  ti_sysbios_knl_Clock_destruct                                   
0000af31  ti_sysbios_knl_Clock_removeI__E                                 
0000af35  ti_sysbios_knl_Clock_setTimeout__E                              
0000af39  ti_sysbios_knl_Queue_destruct                                   
0000af3d  ti_sysbios_knl_Queue_head__E                                    
0000af41  ti_sysbios_knl_Queue_next__E                                    
0000af45  ti_sysbios_knl_Semaphore_destruct                               
0000af49  ti_sysbios_knl_Swi_destruct                                     
0000af4d  ti_sysbios_knl_Swi_postInit__I                                  
0000af51  ti_sysbios_knl_Task_startup__E                                  
0000af55  ti_uia_loggers_LoggerStopMode_getContents__E                    
0000af59  ti_uia_loggers_LoggerStopMode_getFilterLevel__E                 
0000af5d  ti_uia_loggers_LoggerStopMode_getInstanceId__E                  
0000af61  ti_uia_loggers_LoggerStopMode_getMaxLength__E                   
0000af65  ti_uia_loggers_LoggerStopMode_getPriority__E                    
0000af69  ti_uia_loggers_LoggerStopMode_getTransferType__E                
0000af6d  xdc_runtime_System_Module_GateProxy_enter__E                    
0000af71  xdc_runtime_System_Module_GateProxy_leave__E                    
0000af75  ti_uia_loggers_LoggerStopMode_setFilterLevel__E                 
0000af77  ti_uia_loggers_LoggerStopMode_setPriority__E                    
0000af79  xdc_runtime_Error_policySpin__E                                 
0000af7b  xdc_runtime_System_abortSpin__E                                 
0000af7d  xdc_runtime_System_exitSpin__E                                  
0000e4a0  _ctypes_                                                        
0000e5a1  rfPowerTableSize                                                
0000e5a2  ti_sysbios_family_arm_cc26xx_TimestampProvider_useClockTimer__C 
0000e63c  ti_uia_loggers_LoggerStopMode_Module__FXNS__C                   
0000e69c  BoardGpioInitTable                                              
0000e6e8  resourceDB                                                      
0000e7bc  rfPowerTable                                                    
0000e7fc  ti_sysbios_knl_Task_Object__PARAMS__C                           
0000e838  ti_sysbios_family_arm_m3_Hwi_Object__PARAMS__C                  
0000e868  UARTCC26XX_fxnTable                                             
0000e890  ti_sysbios_heaps_HeapMem_Module__FXNS__C                        
0000e8b8  ti_sysbios_knl_Swi_Object__PARAMS__C                            
0000e8e0  ti_uia_loggers_LoggerStopMode_Object__PARAMS__C                 
0000e908  xdc_runtime_Startup_sfxnTab__A                                  
0000e930  UART_defaultParams                                              
0000e954  ti_sysbios_gates_GateHwi_Module__FXNS__C                        
0000e978  ti_sysbios_gates_GateMutex_Module__FXNS__C                      
0000e99c  ti_sysbios_heaps_HeapMem_Object__PARAMS__C                      
0000e9c0  ti_sysbios_knl_Clock_Object__PARAMS__C                          
0000e9e4  ti_sysbios_knl_Semaphore_Object__PARAMS__C                      
0000ea08  ti_sysbios_family_arm_m3_Hwi_Object__DESC__C                    
0000ea28  ti_sysbios_gates_GateHwi_Object__DESC__C                        
0000ea48  ti_sysbios_gates_GateMutex_Object__DESC__C                      
0000ea68  ti_sysbios_heaps_HeapMem_Object__DESC__C                        
0000ea88  ti_sysbios_knl_Clock_Object__DESC__C                            
0000eaa8  ti_sysbios_knl_Queue_Object__DESC__C                            
0000eac8  ti_sysbios_knl_Semaphore_Object__DESC__C                        
0000eae8  ti_sysbios_knl_Swi_Object__DESC__C                              
0000eb08  ti_sysbios_knl_Task_Object__DESC__C                             
0000eb28  ti_uia_loggers_LoggerStopMode_Object__DESC__C                   
0000eb48  uartCC26XXHWAttrs                                               
0000eb80  UART_config                                                     
0000eb98  ti_sysbios_gates_GateHwi_Object__PARAMS__C                      
0000ebb0  ti_sysbios_gates_GateMutex_Object__PARAMS__C                    
0000ebc8  ti_sysbios_knl_Queue_Object__PARAMS__C                          
0000ebf4  xdc_runtime_Startup_sfxnRts__A                                  
0000ec08  PowerCC26XX_config                                              
0000ec18  xdc_runtime_Startup_firstFxns__A                                
0000ec24  PINCC26XX_hwAttrs                                               
0000ec2c  ti_sysbios_knl_Idle_funcList__A                                 
0000ec34  ti_sysbios_knl_Idle_funcList__C                                 
0000ec3c  xdc_runtime_Startup_firstFxns__C                                
0000ec44  xdc_runtime_Startup_lastFxns__C                                 
0000ec50  RFCC26XX_hwAttrs                                                
0000ec54  ti_sysbios_family_arm_cc26xx_Timer_startupNeeded__C             
0000ec58  ti_sysbios_family_arm_m3_Hwi_E_alreadyDefined__C                
0000ec5c  ti_sysbios_family_arm_m3_Hwi_NUM_INTERRUPTS__C                  
0000ec60  ti_sysbios_family_arm_m3_Hwi_Object__count__C                   
0000ec64  ti_sysbios_family_arm_m3_Hwi_ccr__C                             
0000ec68  ti_sysbios_family_arm_m3_Hwi_excHandlerFunc__C                  
0000ec6c  ti_sysbios_family_arm_m3_Hwi_nullIsrFunc__C                     
0000ec70  ti_sysbios_family_arm_m3_Hwi_priGroup__C                        
0000ec74  ti_sysbios_family_arm_m3_TaskSupport_stackAlignment__C          
0000ec78  ti_sysbios_gates_GateMutex_Instance_State_sem__O                
0000ec7c  ti_sysbios_heaps_HeapMem_E_memory__C                            
0000ec80  ti_sysbios_heaps_HeapMem_Module__gateObj__C                     
0000ec84  ti_sysbios_heaps_HeapMem_Object__count__C                       
0000ec88  ti_sysbios_heaps_HeapMem_reqAlign__C                            
0000ec8c  ti_sysbios_knl_Clock_Module_State_clockQ__O                     
0000ec90  ti_sysbios_knl_Clock_tickPeriod__C                              
0000ec94  ti_sysbios_knl_Clock_triggerClock__C                            
0000ec98  ti_sysbios_knl_Semaphore_Instance_State_pendQ__O                
0000ec9c  ti_sysbios_knl_Swi_Object__count__C                             
0000eca0  ti_sysbios_knl_Task_E_spOutOfBounds__C                          
0000eca4  ti_sysbios_knl_Task_E_stackOverflow__C                          
0000eca8  ti_sysbios_knl_Task_Module_State_inactiveQ__O                   
0000ecac  ti_sysbios_knl_Task_Object__count__C                            
0000ecb0  ti_sysbios_knl_Task_allBlockedFunc__C                           
0000ecb4  ti_sysbios_knl_Task_defaultStackHeap__C                         
0000ecb8  ti_sysbios_knl_Task_defaultStackSize__C                         
0000ecbc  ti_sysbios_knl_Task_numConstructedTasks__C                      
0000ecc0  ti_sysbios_utils_Load_postUpdate__C                             
0000ecc4  ti_sysbios_utils_Load_windowInMs__C                             
0000ecc8  ti_uia_loggers_LoggerStopMode_Module__diagsEnabled__C           
0000eccc  ti_uia_loggers_LoggerStopMode_Module__diagsIncluded__C          
0000ecd0  ti_uia_loggers_LoggerStopMode_Module__diagsMask__C              
0000ecd4  ti_uia_loggers_LoggerStopMode_Object__count__C                  
0000ecd8  ti_uia_runtime_ILoggerSnapshot_Interface__BASE__C               
0000ecdc  ti_uia_runtime_IUIATransfer_Interface__BASE__C                  
0000ece0  xdc_runtime_Assert_E_assertFailed__C                            
0000ece4  xdc_runtime_Error_E_memory__C                                   
0000ece8  xdc_runtime_Error_policyFxn__C                                  
0000ecec  xdc_runtime_IFilterLogger_Interface__BASE__C                    
0000ecf0  xdc_runtime_IGateProvider_Interface__BASE__C                    
0000ecf4  xdc_runtime_IHeap_Interface__BASE__C                            
0000ecf8  xdc_runtime_ILogger_Interface__BASE__C                          
0000ecfc  xdc_runtime_IModule_Interface__BASE__C                          
0000ed00  xdc_runtime_Memory_defaultHeapInstance__C                       
0000ed04  xdc_runtime_Startup_execImpl__C                                 
0000ed08  xdc_runtime_Startup_maxPasses__C                                
0000ed0c  xdc_runtime_Startup_sfxnRts__C                                  
0000ed10  xdc_runtime_Startup_sfxnTab__C                                  
0000ed14  xdc_runtime_SysMin_bufSize__C                                   
0000ed18  xdc_runtime_SysMin_outputFunc__C                                
0000ed1c  xdc_runtime_System_Module__gateObj__C                           
0000ed20  xdc_runtime_System_abortFxn__C                                  
0000ed24  xdc_runtime_System_exitFxn__C                                   
0000ed28  xdc_runtime_System_maxAtexitHandlers__C                         
0000ed2c  xdc_runtime_Text_charTab__C                                     
0000ed30  xdc_runtime_Text_nameEmpty__C                                   
0000ed34  xdc_runtime_Text_nameStatic__C                                  
0000ed38  xdc_runtime_Text_nameUnknown__C                                 
0000ed3c  ti_sysbios_family_arm_m3_Hwi_Module__id__C                      
0000ed3e  ti_sysbios_heaps_HeapMem_Module__id__C                          
0000ed40  ti_sysbios_knl_Task_Module__id__C                               
0000ed42  ti_sysbios_utils_Load_updateInIdle__C                           
0000ed44  ti_uia_loggers_LoggerStopMode_Module__id__C                     
0000ed46  ti_uia_loggers_LoggerStopMode_isTimestampEnabled__C             
0000ed48  xdc_runtime_Memory_Module__id__C                                
0000ed4a  xdc_runtime_SysMin_flushAtExit__C                               
0000ed4c  xdc_runtime_Text_charCnt__C                                     
0000ed4e  xdc_runtime_Text_isLoaded__C                                    
0000ed50  xdc_runtime_Error_policy__C                                     
0000ed51  xdc_runtime_Text_charTab__A                                     
0000ed58  __TI_static_base__                                              
0000f144  __TI_Handler_Table_Base                                         
0000f150  __TI_Handler_Table_Limit                                        
0000f158  __TI_CINIT_Base                                                 
0000f168  __TI_CINIT_Limit                                                
0001ffa8  __ccfg                                                          
20000000  ti_sysbios_family_arm_m3_Hwi_ramVectors                         
20000900  ti_sysbios_knl_Task_Instance_State_0_stack__A                   
20001100  ti_sysbios_heaps_HeapMem_Instance_State_0_buf__A                
20001500  ti_uia_loggers_LoggerStopMode_Instance_State_1_packetArray__A   
20001900  ti_uia_loggers_LoggerStopMode_Instance_State_2_packetArray__A   
20001d00  ti_uia_loggers_LoggerStopMode_Instance_State_0_packetArray__A   
20001f00  uartCC26XXObjects                                               
2000202c  __CIOBUF_                                                       
20002250  ti_sysbios_family_arm_m3_Hwi_dispatchTable                      
200023d8  __TI_tmpnams                                                    
20002510  xdc_runtime_SysMin_Module_State_0_outbuf__A                     
20002590  PIN_HandleTable                                                 
20002700  ti_uia_loggers_LoggerStopMode_Instance_State_0_hdr__A           
20002780  ti_uia_loggers_LoggerStopMode_Instance_State_1_hdr__A           
200027b0  uartCC26XXRingBuffer                                            
20002800  ti_uia_loggers_LoggerStopMode_Instance_State_2_hdr__A           
20002940  PIN_NumPins                                                     
20002960  taskHandle                                                      
2000296c  driverlib_release_0_47020                                       
20002978  PowerCC26XX_module                                              
20002a88  _ftable                                                         
20002c48  ti_uia_loggers_LoggerStopMode_Object__table__V                  
20002ce4  ti_sysbios_utils_Load_Module__state__V                          
20002d7c  ti_sysbios_knl_Task_Module_State_0_readyQ__A                    
20002dfc  pOverrides_hsm                                                  
20002e5c  pOverrides_lrm                                                  
20002eb8  pOverrides_ook                                                  
20002f6c  pOverrides_fsk                                                  
20002fc4  ti_sysbios_knl_Task_Object__table__V                            
20003010  ti_sysbios_family_arm_cc26xx_Timer_Object__table__V             
20003058  ti_sysbios_knl_Task_Module__state__V                            
2000309c  RF_pProp_fsk                                                    
200030a0  RF_pProp_lrm                                                    
200030a4  RF_pProp_ook                                                    
200030a8  RF_pProp_hsm                                                    
200030ac  RF_pProp_2_4G_fsk                                               
200030b0  RF_pCmdPropRadioDivSetup_fsk                                    
200030b4  RF_pCmdPropRadioDivSetup_lrm                                    
200030b8  RF_pCmdPropRadioDivSetup_ook                                    
200030bc  RF_pCmdRadioSetup_hsm                                           
200030c0  RF_pCmdPropRadioSetup_2_4G_fsk                                  
200030c4  RF_pCmdTxHS                                                     
200030c8  RF_pCmdRxHS                                                     
200030cc  RF_pCmdFs_preDef                                                
200030d0  RF_pCmdPropTx_preDef                                            
200030d4  RF_pCmdPropRxAdv_preDef                                         
200030d8  ti_sysbios_gates_GateMutex_Object__table__V                     
20003110  ti_sysbios_family_arm_m3_Hwi_Module__state__V                   
20003144  RF_cmdPropRxAdv_preDef                                          
20003174  ti_sysbios_knl_Swi_Module_State_0_readyQ__A                     
200031a4  ti_sysbios_knl_Swi_Object__table__V                             
200031d4  ti_sysbios_knl_Clock_Module__state__V                           
20003200  RF_cmdPropRadioDivSetup                                         
20003228  RF_cmdPropRadioDivSetup_fsk                                     
20003250  RF_cmdPropRadioDivSetup_lrm                                     
20003278  RF_cmdPropRadioDivSetup_ook                                     
200032a0  RF_cmdRxHS                                                      
200032c4  ti_sysbios_BIOS_Module__state__V                                
200032e8  ti_sysbios_knl_Clock_Object__table__V                           
20003308  ti_sysbios_knl_Swi_Module__state__V                             
20003324  RF_cmdFs                                                        
2000333c  RF_cmdFs_preDef                                                 
20003354  RF_cmdPropTx                                                    
2000336c  RF_cmdPropTx_preDef                                             
20003384  RF_cmdRadioSetup_hsm                                            
200033b4  shapeovr                                                        
200033cc  ti_sysbios_family_arm_m3_Hwi_Object__table__V                   
200033e4  ti_sysbios_heaps_HeapMem_Object__table__V                       
200033fc  RF_cmdTxHS                                                      
20003410  RF_prop                                                         
20003420  RF_prop_fsk                                                     
20003430  RF_prop_hsm                                                     
20003440  RF_prop_lrm                                                     
20003450  RF_prop_ook                                                     
20003460  __TI_ft_end                                                     
20003464  __aeabi_stdin                                                   
20003468  __aeabi_stdout                                                  
2000346c  __aeabi_stderr                                                  
20003480  __TI_cleanup_ptr                                                
20003484  __TI_dtors_ptr                                                  
20003488  __TI_enable_exit_profile_output                                 
2000348c  ti_sysbios_knl_Task_Module__root__V                             
20003498  ti_uia_runtime_QueueDescriptor_Module__state__V                 
200034a4  xdc_runtime_SysMin_Module__state__V                             
200034b0  _lock                                                           
200034b4  _unlock                                                         
200034b8  ti_uia_runtime_QueueDescriptor_gPtrToFirstDescriptor            
200034bc  ti_uia_runtime_QueueDescriptor_gUpdateCount                     
200034c0  ti_sysbios_family_arm_cc26xx_Timer_Module__state__V             
200034c8  ti_sysbios_family_arm_m3_Hwi_Module__root__V                    
200034d0  ti_sysbios_gates_GateHwi_Module__root__V                        
200034d8  ti_sysbios_gates_GateMutex_Module__root__V                      
200034e0  ti_sysbios_heaps_HeapMem_Module__root__V                        
200034e8  ti_sysbios_knl_Clock_Module__root__V                            
200034f0  ti_sysbios_knl_Queue_Module__root__V                            
200034f8  ti_sysbios_knl_Semaphore_Module__root__V                        
20003500  ti_sysbios_knl_Swi_Module__root__V                              
20003508  ti_uia_loggers_LoggerStopMode_Module__root__V                   
20003510  xdc_runtime_Startup_Module__state__V                            
20003518  xdc_runtime_System_Module_State_0_atexitHandlers__A             
20003520  xdc_runtime_System_Module__state__V                             
2000352c  errno                                                           
20003534  main_func_sp                                                    
20003538  ti_sysbios_family_arm_cc26xx_TimestampProvider_Module__state__V 
2000353c  ti_sysbios_family_arm_m3_Hwi_Module_State_0_excContext__A       
20003540  ti_sysbios_family_arm_m3_Hwi_Module_State_0_excStack__A         
20003544  ti_sysbios_gates_GateHwi_Object__table__V                       
20003548  ti_sysbios_knl_Task_Module_State_0_idleTask__A                  
2000354c  ti_sysbios_utils_Load_Module_State_0_runningTask__A             
20003550  ti_sysbios_utils_Load_Module_State_0_taskStartTime__A           
20003554  xdc_runtime_Memory_Module__state__V                             
20003558  ti_sysbios_family_arm_m3_Hwi_Module_State_0_excActive__A        
20004d00  __stack                                                         
20005000  __STACK_END                                                     
e000e000  ti_sysbios_family_arm_m3_Hwi_nvic                               
ffffffff  __TI_pprof_out_hndl                                             
ffffffff  __TI_prof_data_size                                             
ffffffff  __TI_prof_data_start                                            
ffffffff  __binit__                                                       
ffffffff  __c_args__                                                      
ffffffff  binit                                                           
UNDEFED   SHT$$INIT_ARRAY$$Base                                           
UNDEFED   SHT$$INIT_ARRAY$$Limit                                          

[778 symbols]
